******************************************************************************
                  TI ARM Linker PC v18.1.4                     
******************************************************************************
>> Linked Wed Feb  6 16:26:41 2019

OUTPUT FILE NAME:   <hello_CC2640R2_LAUNCHXL_tirtos_ccs.out>
ENTRY POINT SYMBOL: "ResetISR"  address: 00002269


MEMORY CONFIGURATION

         name            origin    length      used     unused   attr    fill
----------------------  --------  ---------  --------  --------  ----  --------
  FLASH                 00000000   00020000  0000340b  0001cbf5  R  X
  SRAM                  20000000   00005000  0000253d  00002ac3  RW X


SEGMENT ALLOCATION MAP

run origin  load origin   length   init length attrs members
----------  ----------- ---------- ----------- ----- -------
00000000    00000000    000033bc   000033bc    r-x
  00000000    00000000    0000003c   0000003c    r-- .resetVecs
  0000003c    0000003c    00000fc4   00000fc4    r-x .text.1
  00001000    00001000    00000028   00000028    r-- .const:ti_sysbios_heaps_HeapMem_Module__FXNS__C
  00001028    00001028    00000024   00000024    r-- .const:ti_sysbios_gates_GateHwi_Module__FXNS__C
  0000104c    0000104c    00000024   00000024    r-- .const:ti_sysbios_gates_GateMutex_Module__FXNS__C
  00001070    00001070    00000020   00000020    r-- .const:ti_sysbios_family_arm_m3_Hwi_Object__DESC__C
  00001090    00001090    00000020   00000020    r-- .const:ti_sysbios_gates_GateHwi_Object__DESC__C
  000010b0    000010b0    00000020   00000020    r-- .const:ti_sysbios_gates_GateMutex_Object__DESC__C
  000010d0    000010d0    00000020   00000020    r-- .const:ti_sysbios_hal_Hwi_Object__DESC__C
  000010f0    000010f0    00000020   00000020    r-- .const:ti_sysbios_heaps_HeapMem_Object__DESC__C
  00001110    00001110    00000020   00000020    r-- .const:ti_sysbios_knl_Clock_Object__DESC__C
  00001130    00001130    00000020   00000020    r-- .const:ti_sysbios_knl_Event_Object__DESC__C
  00001150    00001150    00000020   00000020    r-- .const:ti_sysbios_knl_Mailbox_Object__DESC__C
  00001170    00001170    00000020   00000020    r-- .const:ti_sysbios_knl_Queue_Object__DESC__C
  00001190    00001190    00000020   00000020    r-- .const:ti_sysbios_knl_Semaphore_Object__DESC__C
  000011b0    000011b0    00000020   00000020    r-- .const:ti_sysbios_knl_Swi_Object__DESC__C
  000011d0    000011d0    00000020   00000020    r-- .const:ti_sysbios_knl_Task_Object__DESC__C
  000011f0    000011f0    00000008   00000008    r-- .const:ti_sysbios_knl_Idle_funcList__C
  000011f8    000011f8    00000004   00000004    r-- .const:ti_sysbios_family_arm_cc26xx_Timer_startupNeeded__C
  000011fc    000011fc    00000004   00000004    r-- .const:ti_sysbios_family_arm_m3_Hwi_E_alreadyDefined__C
  00001200    00001200    00000004   00000004    r-- .const:ti_sysbios_family_arm_m3_Hwi_E_hwiLimitExceeded__C
  00001204    00001204    00000004   00000004    r-- .const:ti_sysbios_family_arm_m3_Hwi_NUM_INTERRUPTS__C
  00001208    00001208    00000004   00000004    r-- .const:ti_sysbios_family_arm_m3_Hwi_Object__count__C
  0000120c    0000120c    00000004   00000004    r-- .const:ti_sysbios_family_arm_m3_Hwi_Object__table__C
  00001210    00001210    00000004   00000004    r-- .const:ti_sysbios_family_arm_m3_Hwi_ccr__C
  00001214    00001214    00000004   00000004    r-- .const:ti_sysbios_family_arm_m3_Hwi_excHandlerFunc__C
  00001218    00001218    00000004   00000004    r-- .const:ti_sysbios_family_arm_m3_Hwi_nullIsrFunc__C
  0000121c    0000121c    00000004   00000004    r-- .const:ti_sysbios_family_arm_m3_Hwi_numSparseInterrupts__C
  00001220    00001220    00000004   00000004    r-- .const:ti_sysbios_family_arm_m3_Hwi_priGroup__C
  00001224    00001224    00000004   00000004    r-- .const:ti_sysbios_family_arm_m3_TaskSupport_stackAlignment__C
  00001228    00001228    00000004   00000004    r-- .const:ti_sysbios_heaps_HeapMem_E_memory__C
  0000122c    0000122c    00000004   00000004    r-- .const:ti_sysbios_heaps_HeapMem_Module__gateObj__C
  00001230    00001230    00000004   00000004    r-- .const:ti_sysbios_heaps_HeapMem_Object__count__C
  00001234    00001234    00000004   00000004    r-- .const:ti_sysbios_heaps_HeapMem_Object__table__C
  00001238    00001238    00000004   00000004    r-- .const:ti_sysbios_heaps_HeapMem_reqAlign__C
  0000123c    0000123c    00000004   00000004    r-- .const:ti_sysbios_knl_Clock_triggerClock__C
  00001240    00001240    00000004   00000004    r-- .const:ti_sysbios_knl_Mailbox_Object__count__C
  00001244    00001244    00000004   00000004    r-- .const:ti_sysbios_knl_Mailbox_Object__table__C
  00001248    00001248    00000004   00000004    r-- .const:ti_sysbios_knl_Mailbox_maxTypeAlign__C
  0000124c    0000124c    00000004   00000004    r-- .const:ti_sysbios_knl_Queue_Object__count__C
  00001250    00001250    00000004   00000004    r-- .const:ti_sysbios_knl_Queue_Object__table__C
  00001254    00001254    00000004   00000004    r-- .const:ti_sysbios_knl_Semaphore_eventPost__C
  00001258    00001258    00000004   00000004    r-- .const:ti_sysbios_knl_Semaphore_eventSync__C
  0000125c    0000125c    00000004   00000004    r-- .const:ti_sysbios_knl_Swi_Object__count__C
  00001260    00001260    00000004   00000004    r-- .const:ti_sysbios_knl_Swi_Object__table__C
  00001264    00001264    00000004   00000004    r-- .const:ti_sysbios_knl_Swi_numPriorities__C
  00001268    00001268    00000004   00000004    r-- .const:ti_sysbios_knl_Task_Object__count__C
  0000126c    0000126c    00000004   00000004    r-- .const:ti_sysbios_knl_Task_Object__table__C
  00001270    00001270    00000004   00000004    r-- .const:ti_sysbios_knl_Task_allBlockedFunc__C
  00001274    00001274    00000004   00000004    r-- .const:ti_sysbios_knl_Task_defaultStackHeap__C
  00001278    00001278    00000004   00000004    r-- .const:ti_sysbios_knl_Task_defaultStackSize__C
  0000127c    0000127c    00000004   00000004    r-- .const:ti_sysbios_knl_Task_numConstructedTasks__C
  00001280    00001280    00000002   00000002    r-- .const:ti_sysbios_family_arm_cc26xx_Timer_Module__id__C
  00001282    00001282    00000002   00000002    r-- .const:ti_sysbios_family_arm_cc26xx_TimestampProvider_useClockTimer__C
  00001284    00001284    00000002   00000002    r-- .const:ti_sysbios_family_arm_m3_Hwi_Module__id__C
  00001286    00001286    00000002   00000002    r-- .const:ti_sysbios_gates_GateHwi_Module__id__C
  00001288    00001288    00000002   00000002    r-- .const:ti_sysbios_gates_GateMutex_Module__id__C
  0000128a    0000128a    00000002   00000002    r-- .const:ti_sysbios_heaps_HeapMem_Module__id__C
  0000128c    0000128c    00000002   00000002    r-- .const:ti_sysbios_knl_Task_initStackFlag__C
  0000128e    0000128e    00000001   00000001    r-- .const:ti_sysbios_knl_Clock_tickMode__C
  00001290    00001290    00000008   00000008    r-- .const:xdc_runtime_Startup_firstFxns__C
  00001298    00001298    00000008   00000008    r-- .const:xdc_runtime_Startup_lastFxns__C
  000012a0    000012a0    00000004   00000004    r-- .const:xdc_runtime_Assert_E_assertFailed__C
  000012a4    000012a4    00000004   00000004    r-- .const:xdc_runtime_Error_E_memory__C
  000012a8    000012a8    00000004   00000004    r-- .const:xdc_runtime_Error_policyFxn__C
  000012ac    000012ac    00000004   00000004    r-- .const:xdc_runtime_Error_raiseHook__C
  000012b0    000012b0    00000004   00000004    r-- .const:xdc_runtime_IGateProvider_Interface__BASE__C
  000012b4    000012b4    00000004   00000004    r-- .const:xdc_runtime_IHeap_Interface__BASE__C
  000012b8    000012b8    00000004   00000004    r-- .const:xdc_runtime_IModule_Interface__BASE__C
  000012bc    000012bc    00000004   00000004    r-- .const:xdc_runtime_Memory_defaultHeapInstance__C
  000012c0    000012c0    00000004   00000004    r-- .const:xdc_runtime_Startup_execImpl__C
  000012c4    000012c4    00000004   00000004    r-- .const:xdc_runtime_Startup_maxPasses__C
  000012c8    000012c8    00000004   00000004    r-- .const:xdc_runtime_Startup_sfxnRts__C
  000012cc    000012cc    00000004   00000004    r-- .const:xdc_runtime_Startup_sfxnTab__C
  000012d0    000012d0    00000004   00000004    r-- .const:xdc_runtime_Startup_startModsFxn__C
  000012d4    000012d4    00000004   00000004    r-- .const:xdc_runtime_SysCallback_abortFxn__C
  000012d8    000012d8    00000004   00000004    r-- .const:xdc_runtime_SysCallback_exitFxn__C
  000012dc    000012dc    00000004   00000004    r-- .const:xdc_runtime_System_abortFxn__C
  000012e0    000012e0    00000004   00000004    r-- .const:xdc_runtime_System_exitFxn__C
  000012e4    000012e4    00000004   00000004    r-- .const:xdc_runtime_System_maxAtexitHandlers__C
  000012e8    000012e8    00000004   00000004    r-- .const:xdc_runtime_Text_charTab__C
  000012ec    000012ec    00000004   00000004    r-- .const:xdc_runtime_Text_nameEmpty__C
  000012f0    000012f0    00000004   00000004    r-- .const:xdc_runtime_Text_nameStatic__C
  000012f4    000012f4    00000004   00000004    r-- .const:xdc_runtime_Text_nameUnknown__C
  000012f8    000012f8    00000002   00000002    r-- .const:xdc_runtime_Error_maxDepth__C
  000012fa    000012fa    00000002   00000002    r-- .const:xdc_runtime_Memory_Module__id__C
  000012fc    000012fc    00000002   00000002    r-- .const:xdc_runtime_Text_charCnt__C
  000012fe    000012fe    00000002   00000002    r-- .const:xdc_runtime_Text_isLoaded__C
  00001300    00001300    00000001   00000001    r-- .const:xdc_runtime_Error_policy__C
  00001304    00001304    00000004   00000004    r-- .const:ti_sysbios_rom_ROM_ti_sysbios_family_arm_cc26xx_Timer_getCount64__E
  00001308    00001308    00000004   00000004    r-- .const:ti_sysbios_rom_ROM_ti_sysbios_family_arm_cc26xx_Timer_getCurrentTick__E
  0000130c    0000130c    00000004   00000004    r-- .const:ti_sysbios_rom_ROM_ti_sysbios_family_arm_cc26xx_Timer_getMaxTicks__E
  00001310    00001310    00000004   00000004    r-- .const:ti_sysbios_rom_ROM_ti_sysbios_family_arm_cc26xx_Timer_initDevice__I
  00001314    00001314    00000004   00000004    r-- .const:ti_sysbios_rom_ROM_ti_sysbios_family_arm_cc26xx_Timer_setNextTick__E
  00001318    00001318    00000004   00000004    r-- .const:ti_sysbios_rom_ROM_ti_sysbios_family_arm_cc26xx_Timer_setThreshold__I
  0000131c    0000131c    00000004   00000004    r-- .const:ti_sysbios_rom_ROM_ti_sysbios_family_arm_cc26xx_Timer_start__E
  00001320    00001320    00000004   00000004    r-- .const:ti_sysbios_rom_ROM_ti_sysbios_family_arm_cc26xx_TimestampProvider_get32__E
  00001324    00001324    00000004   00000004    r-- .const:ti_sysbios_rom_ROM_xdc_runtime_Startup_getState__I
  00001328    00001328    00000004   00000004    r-- .const:ti_sysbios_rom_ROM_xdc_runtime_System_SupportProxy_abort__E
  0000132c    0000132c    00000004   00000004    r-- .const:ti_sysbios_rom_ROM_xdc_runtime_System_SupportProxy_exit__E
  00001330    00001330    00001c50   00001c50    r-x .text.2
  00002f80    00002f80    000001c3   000001c3    r-- .const
  00003148    00003148    00000274   00000274    r-- .cinit
0001ffa8    0001ffa8    00000058   00000058    r--
  0001ffa8    0001ffa8    00000058   00000058    r-- .ccfg
20000100    20000100    00000106   00000000    rw-
  20000100    20000100    00000044   00000000    rw- .data:ti_sysbios_knl_Task_Module__state__V
  20000144    20000144    00000034   00000000    rw- .data:ti_sysbios_family_arm_m3_Hwi_Module__state__V
  20000178    20000178    0000002c   00000000    rw- .data:ti_sysbios_knl_Clock_Module__state__V
  200001a4    200001a4    00000024   00000000    rw- .data:ti_sysbios_BIOS_Module__state__V
  200001c8    200001c8    0000001c   00000000    rw- .data:ti_sysbios_knl_Swi_Module__state__V
  200001e4    200001e4    00000008   00000000    rw- .data:ti_sysbios_family_arm_cc26xx_Timer_Module__state__V
  200001ec    200001ec    00000004   00000000    rw- .data:ti_sysbios_family_arm_cc26xx_TimestampProvider_Module__state__V
  200001f0    200001f0    00000008   00000000    rw- .data:xdc_runtime_Startup_Module__state__V
  200001f8    200001f8    00000008   00000000    rw- .data:xdc_runtime_System_Module__state__V
  20000200    20000200    00000004   00000000    rw- .data:xdc_runtime_Memory_Module__state__V
  20000204    20000204    00000002   00000000    rw- .data:xdc_runtime_Error_Module__state__V
20000208    20000208    00001000   00000000    r--
  20000208    20000208    00001000   00000000    r-- .priheap
20001208    20001208    00000f76   00000000    rw-
  20001208    20001208    00000a69   00000000    rw- .bss
  20001c78    20001c78    00000506   00000000    rw- .data
20004c00    20004c00    00000400   00000000    rw-
  20004c00    20004c00    00000400   00000000    rw- .stack


SECTION ALLOCATION MAP

 output                                  attributes/
section   page    origin      length       input sections
--------  ----  ----------  ----------   ----------------
.const:ti_sysbios_heaps_HeapMem_Module__FXNS__C 
*          0    00001000    00000028     
                  00001000    00000028     hello_pem3.oem3 (.const:ti_sysbios_heaps_HeapMem_Module__FXNS__C)

.const:ti_sysbios_gates_GateHwi_Module__FXNS__C 
*          0    00001028    00000024     
                  00001028    00000024     hello_pem3.oem3 (.const:ti_sysbios_gates_GateHwi_Module__FXNS__C)

.const:ti_sysbios_gates_GateMutex_Module__FXNS__C 
*          0    0000104c    00000024     
                  0000104c    00000024     hello_pem3.oem3 (.const:ti_sysbios_gates_GateMutex_Module__FXNS__C)

.const:ti_sysbios_family_arm_m3_Hwi_Object__DESC__C 
*          0    00001070    00000020     
                  00001070    00000020     hello_pem3.oem3 (.const:ti_sysbios_family_arm_m3_Hwi_Object__DESC__C)

.const:ti_sysbios_gates_GateHwi_Object__DESC__C 
*          0    00001090    00000020     
                  00001090    00000020     hello_pem3.oem3 (.const:ti_sysbios_gates_GateHwi_Object__DESC__C)

.const:ti_sysbios_gates_GateMutex_Object__DESC__C 
*          0    000010b0    00000020     
                  000010b0    00000020     hello_pem3.oem3 (.const:ti_sysbios_gates_GateMutex_Object__DESC__C)

.const:ti_sysbios_hal_Hwi_Object__DESC__C 
*          0    000010d0    00000020     
                  000010d0    00000020     hello_pem3.oem3 (.const:ti_sysbios_hal_Hwi_Object__DESC__C)

.const:ti_sysbios_heaps_HeapMem_Object__DESC__C 
*          0    000010f0    00000020     
                  000010f0    00000020     hello_pem3.oem3 (.const:ti_sysbios_heaps_HeapMem_Object__DESC__C)

.const:ti_sysbios_knl_Clock_Object__DESC__C 
*          0    00001110    00000020     
                  00001110    00000020     hello_pem3.oem3 (.const:ti_sysbios_knl_Clock_Object__DESC__C)

.const:ti_sysbios_knl_Event_Object__DESC__C 
*          0    00001130    00000020     
                  00001130    00000020     hello_pem3.oem3 (.const:ti_sysbios_knl_Event_Object__DESC__C)

.const:ti_sysbios_knl_Mailbox_Object__DESC__C 
*          0    00001150    00000020     
                  00001150    00000020     hello_pem3.oem3 (.const:ti_sysbios_knl_Mailbox_Object__DESC__C)

.const:ti_sysbios_knl_Queue_Object__DESC__C 
*          0    00001170    00000020     
                  00001170    00000020     hello_pem3.oem3 (.const:ti_sysbios_knl_Queue_Object__DESC__C)

.const:ti_sysbios_knl_Semaphore_Object__DESC__C 
*          0    00001190    00000020     
                  00001190    00000020     hello_pem3.oem3 (.const:ti_sysbios_knl_Semaphore_Object__DESC__C)

.const:ti_sysbios_knl_Swi_Object__DESC__C 
*          0    000011b0    00000020     
                  000011b0    00000020     hello_pem3.oem3 (.const:ti_sysbios_knl_Swi_Object__DESC__C)

.const:ti_sysbios_knl_Task_Object__DESC__C 
*          0    000011d0    00000020     
                  000011d0    00000020     hello_pem3.oem3 (.const:ti_sysbios_knl_Task_Object__DESC__C)

.const:ti_sysbios_knl_Idle_funcList__C 
*          0    000011f0    00000008     
                  000011f0    00000008     hello_pem3.oem3 (.const:ti_sysbios_knl_Idle_funcList__C)

.const:ti_sysbios_family_arm_cc26xx_Timer_startupNeeded__C 
*          0    000011f8    00000004     
                  000011f8    00000004     hello_pem3.oem3 (.const:ti_sysbios_family_arm_cc26xx_Timer_startupNeeded__C)

.const:ti_sysbios_family_arm_m3_Hwi_E_alreadyDefined__C 
*          0    000011fc    00000004     
                  000011fc    00000004     hello_pem3.oem3 (.const:ti_sysbios_family_arm_m3_Hwi_E_alreadyDefined__C)

.const:ti_sysbios_family_arm_m3_Hwi_E_hwiLimitExceeded__C 
*          0    00001200    00000004     
                  00001200    00000004     hello_pem3.oem3 (.const:ti_sysbios_family_arm_m3_Hwi_E_hwiLimitExceeded__C)

.const:ti_sysbios_family_arm_m3_Hwi_NUM_INTERRUPTS__C 
*          0    00001204    00000004     
                  00001204    00000004     hello_pem3.oem3 (.const:ti_sysbios_family_arm_m3_Hwi_NUM_INTERRUPTS__C)

.const:ti_sysbios_family_arm_m3_Hwi_Object__count__C 
*          0    00001208    00000004     
                  00001208    00000004     hello_pem3.oem3 (.const:ti_sysbios_family_arm_m3_Hwi_Object__count__C)

.const:ti_sysbios_family_arm_m3_Hwi_Object__table__C 
*          0    0000120c    00000004     
                  0000120c    00000004     hello_pem3.oem3 (.const:ti_sysbios_family_arm_m3_Hwi_Object__table__C)

.const:ti_sysbios_family_arm_m3_Hwi_ccr__C 
*          0    00001210    00000004     
                  00001210    00000004     hello_pem3.oem3 (.const:ti_sysbios_family_arm_m3_Hwi_ccr__C)

.const:ti_sysbios_family_arm_m3_Hwi_excHandlerFunc__C 
*          0    00001214    00000004     
                  00001214    00000004     hello_pem3.oem3 (.const:ti_sysbios_family_arm_m3_Hwi_excHandlerFunc__C)

.const:ti_sysbios_family_arm_m3_Hwi_nullIsrFunc__C 
*          0    00001218    00000004     
                  00001218    00000004     hello_pem3.oem3 (.const:ti_sysbios_family_arm_m3_Hwi_nullIsrFunc__C)

.const:ti_sysbios_family_arm_m3_Hwi_numSparseInterrupts__C 
*          0    0000121c    00000004     
                  0000121c    00000004     hello_pem3.oem3 (.const:ti_sysbios_family_arm_m3_Hwi_numSparseInterrupts__C)

.const:ti_sysbios_family_arm_m3_Hwi_priGroup__C 
*          0    00001220    00000004     
                  00001220    00000004     hello_pem3.oem3 (.const:ti_sysbios_family_arm_m3_Hwi_priGroup__C)

.const:ti_sysbios_family_arm_m3_TaskSupport_stackAlignment__C 
*          0    00001224    00000004     
                  00001224    00000004     hello_pem3.oem3 (.const:ti_sysbios_family_arm_m3_TaskSupport_stackAlignment__C)

.const:ti_sysbios_heaps_HeapMem_E_memory__C 
*          0    00001228    00000004     
                  00001228    00000004     hello_pem3.oem3 (.const:ti_sysbios_heaps_HeapMem_E_memory__C)

.const:ti_sysbios_heaps_HeapMem_Module__gateObj__C 
*          0    0000122c    00000004     
                  0000122c    00000004     hello_pem3.oem3 (.const:ti_sysbios_heaps_HeapMem_Module__gateObj__C)

.const:ti_sysbios_heaps_HeapMem_Object__count__C 
*          0    00001230    00000004     
                  00001230    00000004     hello_pem3.oem3 (.const:ti_sysbios_heaps_HeapMem_Object__count__C)

.const:ti_sysbios_heaps_HeapMem_Object__table__C 
*          0    00001234    00000004     
                  00001234    00000004     hello_pem3.oem3 (.const:ti_sysbios_heaps_HeapMem_Object__table__C)

.const:ti_sysbios_heaps_HeapMem_reqAlign__C 
*          0    00001238    00000004     
                  00001238    00000004     hello_pem3.oem3 (.const:ti_sysbios_heaps_HeapMem_reqAlign__C)

.const:ti_sysbios_knl_Clock_triggerClock__C 
*          0    0000123c    00000004     
                  0000123c    00000004     hello_pem3.oem3 (.const:ti_sysbios_knl_Clock_triggerClock__C)

.const:ti_sysbios_knl_Mailbox_Object__count__C 
*          0    00001240    00000004     
                  00001240    00000004     hello_pem3.oem3 (.const:ti_sysbios_knl_Mailbox_Object__count__C)

.const:ti_sysbios_knl_Mailbox_Object__table__C 
*          0    00001244    00000004     
                  00001244    00000004     hello_pem3.oem3 (.const:ti_sysbios_knl_Mailbox_Object__table__C)

.const:ti_sysbios_knl_Mailbox_maxTypeAlign__C 
*          0    00001248    00000004     
                  00001248    00000004     hello_pem3.oem3 (.const:ti_sysbios_knl_Mailbox_maxTypeAlign__C)

.const:ti_sysbios_knl_Queue_Object__count__C 
*          0    0000124c    00000004     
                  0000124c    00000004     hello_pem3.oem3 (.const:ti_sysbios_knl_Queue_Object__count__C)

.const:ti_sysbios_knl_Queue_Object__table__C 
*          0    00001250    00000004     
                  00001250    00000004     hello_pem3.oem3 (.const:ti_sysbios_knl_Queue_Object__table__C)

.const:ti_sysbios_knl_Semaphore_eventPost__C 
*          0    00001254    00000004     
                  00001254    00000004     hello_pem3.oem3 (.const:ti_sysbios_knl_Semaphore_eventPost__C)

.const:ti_sysbios_knl_Semaphore_eventSync__C 
*          0    00001258    00000004     
                  00001258    00000004     hello_pem3.oem3 (.const:ti_sysbios_knl_Semaphore_eventSync__C)

.const:ti_sysbios_knl_Swi_Object__count__C 
*          0    0000125c    00000004     
                  0000125c    00000004     hello_pem3.oem3 (.const:ti_sysbios_knl_Swi_Object__count__C)

.const:ti_sysbios_knl_Swi_Object__table__C 
*          0    00001260    00000004     
                  00001260    00000004     hello_pem3.oem3 (.const:ti_sysbios_knl_Swi_Object__table__C)

.const:ti_sysbios_knl_Swi_numPriorities__C 
*          0    00001264    00000004     
                  00001264    00000004     hello_pem3.oem3 (.const:ti_sysbios_knl_Swi_numPriorities__C)

.const:ti_sysbios_knl_Task_Object__count__C 
*          0    00001268    00000004     
                  00001268    00000004     hello_pem3.oem3 (.const:ti_sysbios_knl_Task_Object__count__C)

.const:ti_sysbios_knl_Task_Object__table__C 
*          0    0000126c    00000004     
                  0000126c    00000004     hello_pem3.oem3 (.const:ti_sysbios_knl_Task_Object__table__C)

.const:ti_sysbios_knl_Task_allBlockedFunc__C 
*          0    00001270    00000004     
                  00001270    00000004     hello_pem3.oem3 (.const:ti_sysbios_knl_Task_allBlockedFunc__C)

.const:ti_sysbios_knl_Task_defaultStackHeap__C 
*          0    00001274    00000004     
                  00001274    00000004     hello_pem3.oem3 (.const:ti_sysbios_knl_Task_defaultStackHeap__C)

.const:ti_sysbios_knl_Task_defaultStackSize__C 
*          0    00001278    00000004     
                  00001278    00000004     hello_pem3.oem3 (.const:ti_sysbios_knl_Task_defaultStackSize__C)

.const:ti_sysbios_knl_Task_numConstructedTasks__C 
*          0    0000127c    00000004     
                  0000127c    00000004     hello_pem3.oem3 (.const:ti_sysbios_knl_Task_numConstructedTasks__C)

.const:ti_sysbios_family_arm_cc26xx_Timer_Module__id__C 
*          0    00001280    00000002     
                  00001280    00000002     hello_pem3.oem3 (.const:ti_sysbios_family_arm_cc26xx_Timer_Module__id__C)

.const:ti_sysbios_family_arm_cc26xx_TimestampProvider_useClockTimer__C 
*          0    00001282    00000002     
                  00001282    00000002     hello_pem3.oem3 (.const:ti_sysbios_family_arm_cc26xx_TimestampProvider_useClockTimer__C)

.const:ti_sysbios_family_arm_m3_Hwi_Module__id__C 
*          0    00001284    00000002     
                  00001284    00000002     hello_pem3.oem3 (.const:ti_sysbios_family_arm_m3_Hwi_Module__id__C)

.const:ti_sysbios_gates_GateHwi_Module__id__C 
*          0    00001286    00000002     
                  00001286    00000002     hello_pem3.oem3 (.const:ti_sysbios_gates_GateHwi_Module__id__C)

.const:ti_sysbios_gates_GateMutex_Module__id__C 
*          0    00001288    00000002     
                  00001288    00000002     hello_pem3.oem3 (.const:ti_sysbios_gates_GateMutex_Module__id__C)

.const:ti_sysbios_heaps_HeapMem_Module__id__C 
*          0    0000128a    00000002     
                  0000128a    00000002     hello_pem3.oem3 (.const:ti_sysbios_heaps_HeapMem_Module__id__C)

.const:ti_sysbios_knl_Task_initStackFlag__C 
*          0    0000128c    00000002     
                  0000128c    00000002     hello_pem3.oem3 (.const:ti_sysbios_knl_Task_initStackFlag__C)

.const:ti_sysbios_knl_Clock_tickMode__C 
*          0    0000128e    00000001     
                  0000128e    00000001     hello_pem3.oem3 (.const:ti_sysbios_knl_Clock_tickMode__C)

.const:xdc_runtime_Startup_firstFxns__C 
*          0    00001290    00000008     
                  00001290    00000008     hello_pem3.oem3 (.const:xdc_runtime_Startup_firstFxns__C)

.const:xdc_runtime_Startup_lastFxns__C 
*          0    00001298    00000008     
                  00001298    00000008     hello_pem3.oem3 (.const:xdc_runtime_Startup_lastFxns__C)

.const:xdc_runtime_Assert_E_assertFailed__C 
*          0    000012a0    00000004     
                  000012a0    00000004     hello_pem3.oem3 (.const:xdc_runtime_Assert_E_assertFailed__C)

.const:xdc_runtime_Error_E_memory__C 
*          0    000012a4    00000004     
                  000012a4    00000004     hello_pem3.oem3 (.const:xdc_runtime_Error_E_memory__C)

.const:xdc_runtime_Error_policyFxn__C 
*          0    000012a8    00000004     
                  000012a8    00000004     hello_pem3.oem3 (.const:xdc_runtime_Error_policyFxn__C)

.const:xdc_runtime_Error_raiseHook__C 
*          0    000012ac    00000004     
                  000012ac    00000004     hello_pem3.oem3 (.const:xdc_runtime_Error_raiseHook__C)

.const:xdc_runtime_IGateProvider_Interface__BASE__C 
*          0    000012b0    00000004     
                  000012b0    00000004     hello_pem3.oem3 (.const:xdc_runtime_IGateProvider_Interface__BASE__C)

.const:xdc_runtime_IHeap_Interface__BASE__C 
*          0    000012b4    00000004     
                  000012b4    00000004     hello_pem3.oem3 (.const:xdc_runtime_IHeap_Interface__BASE__C)

.const:xdc_runtime_IModule_Interface__BASE__C 
*          0    000012b8    00000004     
                  000012b8    00000004     hello_pem3.oem3 (.const:xdc_runtime_IModule_Interface__BASE__C)

.const:xdc_runtime_Memory_defaultHeapInstance__C 
*          0    000012bc    00000004     
                  000012bc    00000004     hello_pem3.oem3 (.const:xdc_runtime_Memory_defaultHeapInstance__C)

.const:xdc_runtime_Startup_execImpl__C 
*          0    000012c0    00000004     
                  000012c0    00000004     hello_pem3.oem3 (.const:xdc_runtime_Startup_execImpl__C)

.const:xdc_runtime_Startup_maxPasses__C 
*          0    000012c4    00000004     
                  000012c4    00000004     hello_pem3.oem3 (.const:xdc_runtime_Startup_maxPasses__C)

.const:xdc_runtime_Startup_sfxnRts__C 
*          0    000012c8    00000004     
                  000012c8    00000004     hello_pem3.oem3 (.const:xdc_runtime_Startup_sfxnRts__C)

.const:xdc_runtime_Startup_sfxnTab__C 
*          0    000012cc    00000004     
                  000012cc    00000004     hello_pem3.oem3 (.const:xdc_runtime_Startup_sfxnTab__C)

.const:xdc_runtime_Startup_startModsFxn__C 
*          0    000012d0    00000004     
                  000012d0    00000004     hello_pem3.oem3 (.const:xdc_runtime_Startup_startModsFxn__C)

.const:xdc_runtime_SysCallback_abortFxn__C 
*          0    000012d4    00000004     
                  000012d4    00000004     hello_pem3.oem3 (.const:xdc_runtime_SysCallback_abortFxn__C)

.const:xdc_runtime_SysCallback_exitFxn__C 
*          0    000012d8    00000004     
                  000012d8    00000004     hello_pem3.oem3 (.const:xdc_runtime_SysCallback_exitFxn__C)

.const:xdc_runtime_System_abortFxn__C 
*          0    000012dc    00000004     
                  000012dc    00000004     hello_pem3.oem3 (.const:xdc_runtime_System_abortFxn__C)

.const:xdc_runtime_System_exitFxn__C 
*          0    000012e0    00000004     
                  000012e0    00000004     hello_pem3.oem3 (.const:xdc_runtime_System_exitFxn__C)

.const:xdc_runtime_System_maxAtexitHandlers__C 
*          0    000012e4    00000004     
                  000012e4    00000004     hello_pem3.oem3 (.const:xdc_runtime_System_maxAtexitHandlers__C)

.const:xdc_runtime_Text_charTab__C 
*          0    000012e8    00000004     
                  000012e8    00000004     hello_pem3.oem3 (.const:xdc_runtime_Text_charTab__C)

.const:xdc_runtime_Text_nameEmpty__C 
*          0    000012ec    00000004     
                  000012ec    00000004     hello_pem3.oem3 (.const:xdc_runtime_Text_nameEmpty__C)

.const:xdc_runtime_Text_nameStatic__C 
*          0    000012f0    00000004     
                  000012f0    00000004     hello_pem3.oem3 (.const:xdc_runtime_Text_nameStatic__C)

.const:xdc_runtime_Text_nameUnknown__C 
*          0    000012f4    00000004     
                  000012f4    00000004     hello_pem3.oem3 (.const:xdc_runtime_Text_nameUnknown__C)

.const:xdc_runtime_Error_maxDepth__C 
*          0    000012f8    00000002     
                  000012f8    00000002     hello_pem3.oem3 (.const:xdc_runtime_Error_maxDepth__C)

.const:xdc_runtime_Memory_Module__id__C 
*          0    000012fa    00000002     
                  000012fa    00000002     hello_pem3.oem3 (.const:xdc_runtime_Memory_Module__id__C)

.const:xdc_runtime_Text_charCnt__C 
*          0    000012fc    00000002     
                  000012fc    00000002     hello_pem3.oem3 (.const:xdc_runtime_Text_charCnt__C)

.const:xdc_runtime_Text_isLoaded__C 
*          0    000012fe    00000002     
                  000012fe    00000002     hello_pem3.oem3 (.const:xdc_runtime_Text_isLoaded__C)

.const:xdc_runtime_Error_policy__C 
*          0    00001300    00000001     
                  00001300    00000001     hello_pem3.oem3 (.const:xdc_runtime_Error_policy__C)

.const:ti_sysbios_rom_ROM_ti_sysbios_family_arm_cc26xx_Timer_getCount64__E 
*          0    00001304    00000004     
                  00001304    00000004     hello_pem3.oem3 (.const:ti_sysbios_rom_ROM_ti_sysbios_family_arm_cc26xx_Timer_getCount64__E)

.const:ti_sysbios_rom_ROM_ti_sysbios_family_arm_cc26xx_Timer_getCurrentTick__E 
*          0    00001308    00000004     
                  00001308    00000004     hello_pem3.oem3 (.const:ti_sysbios_rom_ROM_ti_sysbios_family_arm_cc26xx_Timer_getCurrentTick__E)

.const:ti_sysbios_rom_ROM_ti_sysbios_family_arm_cc26xx_Timer_getMaxTicks__E 
*          0    0000130c    00000004     
                  0000130c    00000004     hello_pem3.oem3 (.const:ti_sysbios_rom_ROM_ti_sysbios_family_arm_cc26xx_Timer_getMaxTicks__E)

.const:ti_sysbios_rom_ROM_ti_sysbios_family_arm_cc26xx_Timer_initDevice__I 
*          0    00001310    00000004     
                  00001310    00000004     hello_pem3.oem3 (.const:ti_sysbios_rom_ROM_ti_sysbios_family_arm_cc26xx_Timer_initDevice__I)

.const:ti_sysbios_rom_ROM_ti_sysbios_family_arm_cc26xx_Timer_setNextTick__E 
*          0    00001314    00000004     
                  00001314    00000004     hello_pem3.oem3 (.const:ti_sysbios_rom_ROM_ti_sysbios_family_arm_cc26xx_Timer_setNextTick__E)

.const:ti_sysbios_rom_ROM_ti_sysbios_family_arm_cc26xx_Timer_setThreshold__I 
*          0    00001318    00000004     
                  00001318    00000004     hello_pem3.oem3 (.const:ti_sysbios_rom_ROM_ti_sysbios_family_arm_cc26xx_Timer_setThreshold__I)

.const:ti_sysbios_rom_ROM_ti_sysbios_family_arm_cc26xx_Timer_start__E 
*          0    0000131c    00000004     
                  0000131c    00000004     hello_pem3.oem3 (.const:ti_sysbios_rom_ROM_ti_sysbios_family_arm_cc26xx_Timer_start__E)

.const:ti_sysbios_rom_ROM_ti_sysbios_family_arm_cc26xx_TimestampProvider_get32__E 
*          0    00001320    00000004     
                  00001320    00000004     hello_pem3.oem3 (.const:ti_sysbios_rom_ROM_ti_sysbios_family_arm_cc26xx_TimestampProvider_get32__E)

.const:ti_sysbios_rom_ROM_xdc_runtime_Startup_getState__I 
*          0    00001324    00000004     
                  00001324    00000004     hello_pem3.oem3 (.const:ti_sysbios_rom_ROM_xdc_runtime_Startup_getState__I)

.const:ti_sysbios_rom_ROM_xdc_runtime_System_SupportProxy_abort__E 
*          0    00001328    00000004     
                  00001328    00000004     hello_pem3.oem3 (.const:ti_sysbios_rom_ROM_xdc_runtime_System_SupportProxy_abort__E)

.const:ti_sysbios_rom_ROM_xdc_runtime_System_SupportProxy_exit__E 
*          0    0000132c    00000004     
                  0000132c    00000004     hello_pem3.oem3 (.const:ti_sysbios_rom_ROM_xdc_runtime_System_SupportProxy_exit__E)

.cinit     0    00003148    00000274     
                  00003148    0000012f     (.cinit..data.load) [load image, compression = lzss]
                  00003277    00000028     (.cinit..data:ti_sysbios_family_arm_m3_Hwi_Module__state__V.load) [load image, compression = lzss]
                  0000329f    00000021     (.cinit..data:ti_sysbios_knl_Task_Module__state__V.load) [load image, compression = lzss]
                  000032c0    0000001f     (.cinit..data:ti_sysbios_BIOS_Module__state__V.load) [load image, compression = lzss]
                  000032df    0000001d     (.cinit..data:ti_sysbios_knl_Clock_Module__state__V.load) [load image, compression = lzss]
                  000032fc    00000010     (.cinit..data:ti_sysbios_knl_Swi_Module__state__V.load) [load image, compression = lzss]
                  0000330c    0000000c     (__TI_handler_table)
                  00003318    0000000b     (.cinit..data:ti_sysbios_family_arm_cc26xx_Timer_Module__state__V.load) [load image, compression = lzss]
                  00003323    0000000b     (.cinit..data:xdc_runtime_System_Module__state__V.load) [load image, compression = lzss]
                  0000332e    00000002     --HOLE-- [fill = 0]
                  00003330    00000008     (.cinit..bss.load) [load image, compression = zero_init]
                  00003338    00000008     (.cinit..data:xdc_runtime_Memory_Module__state__V.load) [load image, compression = lzss]
                  00003340    00000007     (.cinit..data:ti_sysbios_family_arm_cc26xx_TimestampProvider_Module__state__V.load) [load image, compression = lzss]
                  00003347    00000007     (.cinit..data:xdc_runtime_Startup_Module__state__V.load) [load image, compression = lzss]
                  0000334e    00000006     (.cinit..data:xdc_runtime_Error_Module__state__V.load) [load image, compression = lzss]
                  00003354    00000068     (__TI_cinit_table)

.init_array 
*          0    00000000    00000000     UNINITIALIZED

.ccfg      0    0001ffa8    00000058     
                  0001ffa8    00000058     ccfg.obj (.ccfg:retain)

.data:ti_sysbios_knl_Task_Module__state__V 
*          0    20000100    00000044     UNINITIALIZED
                  20000100    00000044     hello_pem3.oem3 (.data:ti_sysbios_knl_Task_Module__state__V)

.data:ti_sysbios_family_arm_m3_Hwi_Module__state__V 
*          0    20000144    00000034     UNINITIALIZED
                  20000144    00000034     hello_pem3.oem3 (.data:ti_sysbios_family_arm_m3_Hwi_Module__state__V)

.data:ti_sysbios_knl_Clock_Module__state__V 
*          0    20000178    0000002c     UNINITIALIZED
                  20000178    0000002c     hello_pem3.oem3 (.data:ti_sysbios_knl_Clock_Module__state__V)

.data:ti_sysbios_BIOS_Module__state__V 
*          0    200001a4    00000024     UNINITIALIZED
                  200001a4    00000024     hello_pem3.oem3 (.data:ti_sysbios_BIOS_Module__state__V)

.data:ti_sysbios_knl_Swi_Module__state__V 
*          0    200001c8    0000001c     UNINITIALIZED
                  200001c8    0000001c     hello_pem3.oem3 (.data:ti_sysbios_knl_Swi_Module__state__V)

.data:ti_sysbios_family_arm_cc26xx_Timer_Module__state__V 
*          0    200001e4    00000008     UNINITIALIZED
                  200001e4    00000008     hello_pem3.oem3 (.data:ti_sysbios_family_arm_cc26xx_Timer_Module__state__V)

.data:ti_sysbios_family_arm_cc26xx_TimestampProvider_Module__state__V 
*          0    200001ec    00000004     UNINITIALIZED
                  200001ec    00000004     hello_pem3.oem3 (.data:ti_sysbios_family_arm_cc26xx_TimestampProvider_Module__state__V)

.data:xdc_runtime_Startup_Module__state__V 
*          0    200001f0    00000008     UNINITIALIZED
                  200001f0    00000008     hello_pem3.oem3 (.data:xdc_runtime_Startup_Module__state__V)

.data:xdc_runtime_System_Module__state__V 
*          0    200001f8    00000008     UNINITIALIZED
                  200001f8    00000008     hello_pem3.oem3 (.data:xdc_runtime_System_Module__state__V)

.data:xdc_runtime_Memory_Module__state__V 
*          0    20000200    00000004     UNINITIALIZED
                  20000200    00000004     hello_pem3.oem3 (.data:xdc_runtime_Memory_Module__state__V)

.data:xdc_runtime_Error_Module__state__V 
*          0    20000204    00000002     UNINITIALIZED
                  20000204    00000002     hello_pem3.oem3 (.data:xdc_runtime_Error_Module__state__V)

.bss       0    20001208    00000a69     UNINITIALIZED
                  20001208    00000400     hello.obj (.bss:adc_task_stack)
                  20001608    00000200     hello_pem3.oem3 (.bss:taskStackSection)
                  20001808    00000200     (.common:xdc_runtime_SysMin_Module_State_0_outbuf__A)
                  20001a08    00000120     rtsv7M3_T_le_eabi.lib : trgmsg.c.obj (.bss:_CIOBUF_)
                  20001b28    000000c8     (.common:ti_sysbios_family_arm_m3_Hwi_dispatchTable)
                  20001bf0    00000050     (.common:adc_task_struct)
                  20001c40    00000014     driverlib.lib : osc.obj (.bss:oscHfGlobals)
                  20001c54    00000008     dpl_cc26x0r2.aem3 : PowerCC26XX_tirtos.oem3 (.bss:$O1$$)
                  20001c5c    00000008     driverlib.lib : sys_ctrl.obj (.bss:powerQualGlobals)
                  20001c64    00000008     (.common:parmbuf)
                  20001c6c    00000004     (.common:ClockP_tickPeriod)
                  20001c70    00000001     (.common:driverlib_release_0_53646)

.data      0    20001c78    00000506     UNINITIALIZED
                  20001c78    00000114     drivers_cc26x0r2.aem3 : PINCC26XX.oem3 (.data:$O1$$)
                  20001d8c    00000114                           : PowerCC26XX.oem3 (.data:PowerCC26XX_module)
                  20001ea0    00000054                           : GPIOCC26XX.oem3 (.data:$O1$$)
                  20001ef4    0000004c     hello_pem3.oem3 (.data:ti_sysbios_knl_Task_Object__table__V)
                  20001f40    00000048     hello_pem3.oem3 (.data:ti_sysbios_family_arm_cc26xx_Timer_Object__table__V)
                  20001f88    00000038     hello_pem3.oem3 (.data:ti_sysbios_gates_GateMutex_Object__table__V)
                  20001fc0    00000030     CC2640R2_LAUNCHXL.obj (.data:gpioPinConfigs)
                  20001ff0    00000030     hello_pem3.oem3 (.data:ti_sysbios_knl_Swi_Module_State_0_readyQ__A)
                  20002020    00000030     hello_pem3.oem3 (.data:ti_sysbios_knl_Swi_Object__table__V)
                  20002050    00000020     hello_pem3.oem3 (.data:ti_sysbios_knl_Clock_Object__table__V)
                  20002070    00000020     hello_pem3.oem3 (.data:ti_sysbios_knl_Task_Module_State_0_readyQ__A)
                  20002090    00000020     hello_pem3.oem3 (.data:xdc_runtime_Error_IgnoreBlock)
                  200020b0    00000018     hello_pem3.oem3 (.data:ti_sysbios_family_arm_m3_Hwi_Object__table__V)
                  200020c8    00000018     hello_pem3.oem3 (.data:ti_sysbios_heaps_HeapMem_Object__table__V)
                  200020e0    00000010     CC2640R2_LAUNCHXL.obj (.data:gpioCallbackFunctions)
                  200020f0    0000000c     hello_pem3.oem3 (.data:xdc_runtime_SysMin_Module__state__V)
                  200020fc    00000008     rtsv7M3_T_le_eabi.lib : _lock.c.obj (.data:$O1$$)
                  20002104    00000008     hello_pem3.oem3 (.data:ti_sysbios_family_arm_m3_Hwi_Module__root__V)
                  2000210c    00000008     hello_pem3.oem3 (.data:ti_sysbios_gates_GateHwi_Module__root__V)
                  20002114    00000008     hello_pem3.oem3 (.data:ti_sysbios_gates_GateMutex_Module__root__V)
                  2000211c    00000008     hello_pem3.oem3 (.data:ti_sysbios_hal_Hwi_Module__root__V)
                  20002124    00000008     hello_pem3.oem3 (.data:ti_sysbios_heaps_HeapMem_Module__root__V)
                  2000212c    00000008     hello_pem3.oem3 (.data:ti_sysbios_knl_Clock_Module__root__V)
                  20002134    00000008     hello_pem3.oem3 (.data:ti_sysbios_knl_Event_Module__root__V)
                  2000213c    00000008     hello_pem3.oem3 (.data:ti_sysbios_knl_Mailbox_Module__root__V)
                  20002144    00000008     hello_pem3.oem3 (.data:ti_sysbios_knl_Queue_Module__root__V)
                  2000214c    00000008     hello_pem3.oem3 (.data:ti_sysbios_knl_Semaphore_Module__root__V)
                  20002154    00000008     hello_pem3.oem3 (.data:ti_sysbios_knl_Swi_Module__root__V)
                  2000215c    00000008     hello_pem3.oem3 (.data:ti_sysbios_knl_Task_Module__root__V)
                  20002164    00000008     hello_pem3.oem3 (.data:xdc_runtime_System_Module_State_0_atexitHandlers__A)
                  2000216c    00000004     rtsv7M3_T_le_eabi.lib : stkdepth_vars.c.obj (.data)
                  20002170    00000004     hello_pem3.oem3 (.data:ti_sysbios_family_arm_m3_Hwi_Module_State_0_excContext__A)
                  20002174    00000004     hello_pem3.oem3 (.data:ti_sysbios_family_arm_m3_Hwi_Module_State_0_excStack__A)
                  20002178    00000004     hello_pem3.oem3 (.data:ti_sysbios_knl_Task_Module_State_0_idleTask__A)
                  2000217c    00000002     hello_pem3.oem3 (.data:ti_sysbios_family_arm_m3_Hwi_Module_State_0_excActive__A)

.priheap   0    20000208    00001000     UNINITIALIZED
                  20000208    00001000     --HOLE--

.stack     0    20004c00    00000400     UNINITIALIZED
                  20004c00    00000400     --HOLE--

.bootVecs 
*          0    00000000    00000008     DSECT
                  00000000    00000008     boot.aem3 : boot.oem3 (.bootVecs)

.resetVecs 
*          0    00000000    0000003c     
                  00000000    0000003c     hello_pem3.oem3 (.resetVecs)

.vecs      0    20000000    000000c8     NOLOAD SECTION
                  20000000    000000c8     hello_pem3.oem3 (.vecs)

xdc.meta   0    00000000    0000010a     COPY SECTION
                  00000000    0000010a     hello_pem3.oem3 (xdc.meta)

xdc.noload 
*          0    00000000    00000000     COPY SECTION

.binit     0    00000000    00000000     

.text.1    0    0000003c    00000fc4     
                  0000003c    00000314     drivers_cc26x0r2.aem3 : PowerCC26XX_calibrateRCOSC.oem3 (.text:PowerCC26XX_auxISR)
                  00000350    0000022c                           : PowerCC26XX.oem3 (.text:Power_sleep)
                  0000057c    00000008     (.tramp.ti_sysbios_knl_Swi_restore__E.1)
                  00000584    0000020c     driverlib.lib : sys_ctrl.obj (.text:NOROM_SysCtrlSetRechargeBeforePowerDown)
                  00000790    000001b8     drivers_cc26x0r2.aem3 : PINCC26XX.oem3 (.text:PIN_init)
                  00000948    00000190                           : PowerCC26XX_calibrateRCOSC.oem3 (.text:PowerCC26XX_doCalibrate)
                  00000ad8    0000012c                           : PowerCC26XX.oem3 (.text:Power_init)
                  00000c04    00000110                           : GPIOCC26XX.oem3 (.text:GPIO_setConfig)
                  00000d14    00000008     (.tramp.ti_sysbios_family_arm_m3_Hwi_restoreFxn__E.1)
                  00000d1c    000000e8     dpl_cc26x0r2.aem3 : PowerCC26XX_tirtos.oem3 (.text:PowerCC26XX_standbyPolicy)
                  00000e04    00000008     (.tramp.ti_sysbios_knl_Clock_setTimeout__E.1)
                  00000e0c    00000008     (.tramp.ti_sysbios_knl_Clock_start__E.1)
                  00000e14    00000008     (.tramp.ti_sysbios_knl_Clock_stop__E.1)
                  00000e1c    000000dc     drivers_cc26x0r2.aem3 : PINCC26XX.oem3 (.text:PINCC26XX_setIoCfg)
                  00000ef8    000000bc                           : GPIOCC26XX.oem3 (.text:GPIO_init)
                  00000fb4    0000004c     CC2640R2_LAUNCHXL_fxns.obj (.text:CC2640R2_LAUNCHXL_wakeUpExtFlash)

.text.2    0    00001330    00001c50     
                  00001330    000000bc     drivers_cc26x0r2.aem3 : PowerCC26XX.oem3 (.text:Power_releaseDependency)
                  000013ec    000000b4                           : PowerCC26XX.oem3 (.text:Power_setDependency)
                  000014a0    000000ac     driverlib.lib : setup.obj (.text:NOROM_SetupTrimDevice)
                  0000154c    000000a4     drivers_cc26x0r2.aem3 : PowerCC26XX.oem3 (.text:switchXOSCHFclockFunc)
                  000015f0    000000a0                           : PINCC26XX.oem3 (.text:PIN_open)
                  00001690    000000a0     auto_init.aem3 : auto_init.oem3 (.text)
                  00001730    0000009c     rtsv7M3_T_le_eabi.lib : memcpy_t2.asm.obj (.text)
                  000017cc    00000098     rom_sysbios.aem3 : rom_sysbios.obj (.text:ti_sysbios_knl_Clock_workFuncDynamic__E)
                  00001864    00000096     rtsv7M3_T_le_eabi.lib : ull_div_t2.asm.obj (.text)
                  000018fa    00000002                           : _lock.c.obj (.text:_nop)
                  000018fc    00000090     rom_sysbios.aem3 : rom_sysbios.obj (.text:ti_sysbios_family_arm_cc26xx_Timer_start__E)
                  0000198c    0000008c     driverlib.lib : setup.obj (.text:TrimAfterColdResetWakeupFromShutDown)
                  00001a18    00000084     CC2640R2_LAUNCHXL_fxns.obj (.text:CC2640R2_LAUNCHXL_sendExtFlashByte)
                  00001a9c    0000007a     rtsv7M3_T_le_eabi.lib : memset_t2.asm.obj (.text)
                  00001b16    00000002     hello.obj (.text:adc_task_function)
                  00001b18    00000070     driverlib.lib : sys_ctrl.obj (.text:NOROM_SysCtrlAdjustRechargeAfterPowerDown)
                  00001b88    00000070     drivers_cc26x0r2.aem3 : PowerCC26XX.oem3 (.text:lfClockReadyCallback)
                  00001bf8    0000006c     driverlib.lib : osc.obj (.text:NOROM_OSCHF_AttemptToSwitchToXosc)
                  00001c64    0000006c     drivers_cc26x0r2.aem3 : PowerCC26XX_calibrateRCOSC.oem3 (.text:PowerCC26XX_initiateCalibration)
                  00001cd0    0000006c                           : PowerCC26XX.oem3 (.text:configureXOSCHF)
                  00001d3c    00000068     driverlib.lib : sys_ctrl.obj (.text:NOROM_SysCtrl_DCDC_VoltageConditionalControl)
                  00001da4    00000068     drivers_cc26x0r2.aem3 : PINCC26XX.oem3 (.text:PIN_add)
                  00001e0c    00000068     rtsv7M3_T_le_eabi.lib : copy_decompress_lzss.c.obj (.text:decompress:lzss:__TI_decompress_lzss)
                  00001e74    00000064     rom_sysbios.aem3 : rom_sysbios.obj (.text:ti_sysbios_heaps_HeapMem_initPrimary__I)
                  00001ed8    00000060     drivers_cc26x0r2.aem3 : PowerCC26XX.oem3 (.text:PowerCC26XX_calibrate)
                  00001f38    0000005c                           : PowerCC26XX_calibrateRCOSC.oem3 (.text:PowerCC26XX_RCOSC_clockFunc)
                  00001f94    0000005c     hello_pem3.oem3 (.text:xdc_runtime_Startup_getState__I)
                  00001ff0    00000058     rtsv7M3_T_le_eabi.lib : hostwrite.c.obj (.text:HOSTwrite)
                  00002048    00000058     drivers_cc26x0r2.aem3 : PINCC26XX.oem3 (.text:PIN_remove)
                  000020a0    00000054                           : GPIOCC26XX.oem3 (.text:powerPostNotify)
                  000020f4    00000050     dpl_cc26x0r2.aem3 : ClockP_tirtos.oem3 (.text:ClockP_construct)
                  00002144    0000004c     drivers_cc26x0r2.aem3 : GPIOCC26XX.oem3 (.text:GPIO_enableInt)
                  00002190    0000004c     rtsv7M3_T_le_eabi.lib : cpy_tbl.c.obj (.text:copy_in)
                  000021dc    00000048     rom_sysbios.aem3 : rom_sysbios.obj (.text:ti_sysbios_family_arm_cc26xx_Timer_setThreshold__I)
                  00002224    00000044     driverlib.lib : osc.obj (.text:NOROM_OSCHF_SwitchToRcOscTurnOffXosc)
                  00002268    00000044     boot.aem3 : boot.oem3 (.text)
                  000022ac    00000044     hello.obj (.text:main)
                  000022f0    00000044     rom_sysbios.aem3 : rom_sysbios.obj (.text:xdc_runtime_SysMin_flush__E)
                  00002334    00000040     CC2640R2_LAUNCHXL_fxns.obj (.text:CC2640R2_LAUNCHXL_shutDownExtFlash)
                  00002374    00000040     drivers_cc26x0r2.aem3 : PINCC26XX.oem3 (.text:PIN_swi)
                  000023b4    0000003e     dpl_cc26x0r2.aem3 : HwiP_tirtos.oem3 (.text:HwiP_construct)
                  000023f2    00000002     drivers_cc26x0r2.aem3 : PowerCC26XX.oem3 (.text:emptyClockFunc)
                  000023f4    0000003c     driverlib.lib : osc.obj (.text:NOROM_OSC_HPOSCRelativeFrequencyOffsetGet)
                  00002430    0000003c     dpl_cc26x0r2.aem3 : SwiP_tirtos.oem3 (.text:SwiP_construct)
                  0000246c    0000003c     drivers_cc26x0r2.aem3 : PowerCC26XX.oem3 (.text:disableLfClkQualifiersEnableClkLoss)
                  000024a8    0000003c     rom_sysbios.aem3 : rom_sysbios.obj (.text:ti_sysbios_family_arm_m3_Hwi_construct2__E)
                  000024e4    00000038     drivers_cc26x0r2.aem3 : PINCC26XX.oem3 (.text:PIN_setConfig)
                  0000251c    00000038                           : PINCC26XX.oem3 (.text:PIN_setInterrupt)
                  00002554    00000038                           : PINCC26XX.oem3 (.text:PIN_setOutputValue)
                  0000258c    00000038     rtsv7M3_T_le_eabi.lib : trgmsg.c.obj (.text:__TI_writemsg)
                  000025c4    00000038     rom_sysbios.aem3 : rom_sysbios.obj (.text:ti_sysbios_family_arm_cc26xx_Timer_getCurrentTick__E)
                  000025fc    00000036                      : rom_sysbios.obj (.text:ti_sysbios_family_arm_cc26xx_Timer_setNextTick__E)
                  00002632    00000002     rtsv7M3_T_le_eabi.lib : div0.asm.obj (.text)
                  00002634    00000034     drivers_cc26x0r2.aem3 : GPIOCC26XX.oem3 (.text:GPIO_setCallback)
                  00002668    00000034                           : PowerCC26XX.oem3 (.text:Power_releaseConstraint)
                  0000269c    00000034     rtsv7M3_T_le_eabi.lib : trgmsg.c.obj (.text:__TI_readmsg)
                  000026d0    00000034     drivers_cc26x0r2.aem3 : PowerCC26XX.oem3 (.text:notify)
                  00002704    00000034     rom_sysbios.aem3 : rom_sysbios.obj (.text:ti_sysbios_family_arm_cc26xx_Timer_initDevice__I)
                  00002738    00000034                      : rom_sysbios.obj (.text:xdc_runtime_SysMin_abort__E)
                  0000276c    00000034                      : rom_sysbios.obj (.text:xdc_runtime_SysMin_putch__E)
                  000027a0    00000030     drivers_cc26x0r2.aem3 : GPIOCC26XX.oem3 (.text:GPIO_hwiIntFxn)
                  000027d0    00000030                           : PowerCC26XX.oem3 (.text:Power_setConstraint)
                  00002800    00000030     hello_pem3.oem3 (.text:ti_sysbios_BIOS_atExitFunc__I)
                  00002830    00000030     hello_pem3.oem3 (.text:ti_sysbios_BIOS_startFunc__I)
                  00002860    0000002c     driverlib.lib : chipinfo.obj (.text:NOROM_ChipInfo_GetChipFamily)
                  0000288c    0000002c     dpl_cc26x0r2.aem3 : SemaphoreP_tirtos.oem3 (.text:SemaphoreP_constructBinary)
                  000028b8    0000002c                       : SemaphoreP_tirtos.oem3 (.text:SemaphoreP_createBinary)
                  000028e4    0000002c     rom_sysbios.aem3 : rom_sysbios.obj (.text:ti_sysbios_knl_Clock_getTicksUntilInterrupt__E)
                  00002910    00000028     driverlib.lib : chipinfo.obj (.text:NOROM_ChipInfo_GetChipType)
                  00002938    00000028     drivers_cc26x0r2.aem3 : PowerCC26XX.oem3 (.text:Power_registerNotify)
                  00002960    00000028     driverlib.lib : adi.obj (.text:SafeHapiVoid)
                  00002988    00000024                   : osc.obj (.text:NOROM_OSCHF_TurnOnXosc)
                  000029ac    00000024     hello_pem3.oem3 (.text:ti_sysbios_BIOS_registerRTSLock__I)
                  000029d0    00000024     hello_pem3.oem3 (.text:ti_sysbios_BIOS_removeRTSLock__I)
                  000029f4    00000024     rom_sysbios.aem3 : rom_sysbios.obj (.text:ti_sysbios_family_arm_cc26xx_Timer_getMaxTicks__E)
                  00002a18    00000022     drivers_cc26x0r2.aem3 : List.oem3 (.text:List_put)
                  00002a3a    00000022     hello_pem3.oem3 (.text:xdc_runtime_SysMin_output__I)
                  00002a5c    00000020     dpl_cc26x0r2.aem3 : PowerCC26XX_tirtos.oem3 (.text:PowerCC26XX_schedulerDisable)
                  00002a7c    00000020                       : PowerCC26XX_tirtos.oem3 (.text:PowerCC26XX_schedulerRestore)
                  00002a9c    00000020     hello_pem3.oem3 (.text:ti_sysbios_BIOS_rtsLock__I)
                  00002abc    00000020     rom_sysbios.aem3 : rom_sysbios.obj (.text:ti_sysbios_family_arm_cc26xx_Timer_dynamicStub__E)
                  00002adc    00000020                      : rom_sysbios.obj (.text:xdc_runtime_SysMin_Module_startup__E)
                  00002afc    0000001e     drivers_cc26x0r2.aem3 : PINCC26XX.oem3 (.text:PIN_close)
                  00002b1a    0000001e                           : PowerCC26XX.oem3 (.text:Power_getTransitionLatency)
                  00002b38    0000001c     CC2640R2_LAUNCHXL.obj (.text:CC2640R2_LAUNCHXL_initGeneral)
                  00002b54    0000001c     drivers_cc26x0r2.aem3 : PINCC26XX.oem3 (.text:PINCC26XX_setIoCfgMux)
                  00002b70    0000001c                           : PINCC26XX.oem3 (.text:PIN_hwi)
                  00002b8c    0000001c     rom_sysbios.aem3 : rom_sysbios.obj (.text:ti_sysbios_knl_Swi_construct2__E)
                  00002ba8    0000001c                      : rom_sysbios.obj (.text:xdc_runtime_SysMin_exit__E)
                  00002bc4    00000018     driverlib.lib : chipinfo.obj (.text:NOROM_ChipInfo_GetPackageType)
                  00002bdc    00000018     drivers_cc26x0r2.aem3 : PowerCC26XX.oem3 (.text:Power_idleFunc)
                  00002bf4    00000018     rtsv7M3_T_le_eabi.lib : args_main.c.obj (.text:_args_main)
                  00002c0c    00000018                           : ll_mul_t2.asm.obj (.text)
                  00002c24    00000018     hello_pem3.oem3 (.text:ti_sysbios_BIOS_rtsUnlock__I)
                  00002c3c    00000018     rom_sysbios.aem3 : rom_sysbios.obj (.text:ti_sysbios_knl_Swi_or__E)
                  00002c54    00000018     hello_pem3.oem3 (.text:ti_sysbios_rom_cortexm_cc26xx_r2_CC26xx_checkRevision__E)
                  00002c6c    00000016     hello_pem3.oem3 (.text:ti_sysbios_BIOS_errorRaiseHook__I)
                  00002c82    00000016     hello_pem3.oem3 (.text:ti_sysbios_BIOS_exitFunc__I)
                  00002c98    00000016     hello.obj (.text:ti_sysbios_knl_Task_Params_init)
                  00002cae    00000002     hello_pem3.oem3 (.text:ti_sysbios_BIOS_nullFunc__I)
                  00002cb0    00000014     drivers_cc26x0r2.aem3 : PowerCC26XX.oem3 (.text:configureRFCoreClocks)
                  00002cc4    00000014     rom_sysbios.aem3 : rom_sysbios.obj (.text:ti_sysbios_family_arm_cc26xx_Timer_getCount64__E)
                  00002cd8    00000014     hello_pem3.oem3 (.text:ti_sysbios_knl_Clock_doTick__I)
                  00002cec    00000012     dpl_cc26x0r2.aem3 : SemaphoreP_tirtos.oem3 (.text:SemaphoreP_pend)
                  00002cfe    00000012     hello_pem3.oem3 (.text:xdc_runtime_Startup_exec__I)
                  00002d10    00000010     dpl_cc26x0r2.aem3 : HwiP_tirtos.oem3 (.text:HwiP_Params_init)
                  00002d20    00000010     drivers_cc26x0r2.aem3 : PINCC26XX.oem3 (.text:PINCC26XX_getPinCount)
                  00002d30    00000010     dpl_cc26x0r2.aem3 : SwiP_tirtos.oem3 (.text:SwiP_Params_init)
                  00002d40    0000000e     driverlib.lib : chipinfo.obj (.text:NOROM_ThisLibraryIsFor_CC26x0R2_HaltIfViolated)
                  00002d4e    0000000e     rtsv7M3_T_le_eabi.lib : copy_decompress_none.c.obj (.text:decompress:none:__TI_decompress_none)
                  00002d5c    0000000e     rom_sysbios.aem3 : rom_sysbios.obj (.text:ti_sysbios_family_arm_cc26xx_TimestampProvider_get32__E)
                  00002d6a    0000000c     driverlib.lib : cpu.obj (.text:NOROM_CPUcpsid)
                  00002d76    0000000c                   : cpu.obj (.text:NOROM_CPUcpsie)
                  00002d82    0000000c                   : osc.obj (.text:NOROM_OSC_HPOSCRelativeFrequencyOffsetToRFCoreFormatConvert)
                  00002d8e    0000000c     drivers_cc26x0r2.aem3 : PINCC26XX.oem3 (.text:PIN_registerIntCb)
                  00002d9a    00000002     hello_pem3.oem3 (.text:ti_sysbios_rom_cortexm_cc26xx_r2_CC26xx_badRomRevision__E)
                  00002d9c    0000000c     drivers_cc26x0r2.aem3 : PowerCC26XX.oem3 (.text:Power_getConstraintMask)
                  00002da8    0000000c                           : PowerCC26XX.oem3 (.text:Power_getDependencyCount)
                  00002db4    0000000c     dpl_cc26x0r2.aem3 : SemaphoreP_tirtos.oem3 (.text:SemaphoreP_delete)
                  00002dc0    0000000c     rtsv7M3_T_le_eabi.lib : _lock.c.obj (.text:_register_lock)
                  00002dcc    0000000c                           : _lock.c.obj (.text:_register_unlock)
                  00002dd8    0000000c                           : copy_zero_init.c.obj (.text:decompress:ZI:__TI_zero_init)
                  00002de4    0000000c     rom_sysbios.aem3 : rom_sysbios.obj (.text:ti_sysbios_knl_Swi_getTrigger__E)
                  00002df0    0000000c     hello_pem3.oem3 (.text:xdc_runtime_Startup_reset__I)
                  00002dfc    0000000a     dpl_cc26x0r2.aem3 : ClockP_tirtos.oem3 (.text:ClockP_Params_init)
                  00002e06    00000008     CC2640R2_LAUNCHXL_fxns.obj (.text:Board_initHook)
                  00002e0e    00000006     driverlib.lib : cpu.obj (.text:NOROM_CPUdelay)
                  00002e14    00000004     dpl_cc26x0r2.aem3 : PowerCC26XX_tirtos.oem3 (.text:CPUwfi)
                  00002e18    00000004                       : ClockP_tirtos.oem3 (.text:ClockP_setTimeout)
                  00002e1c    00000004                       : ClockP_tirtos.oem3 (.text:ClockP_start)
                  00002e20    00000004                       : ClockP_tirtos.oem3 (.text:ClockP_stop)
                  00002e24    00000004                       : HwiP_tirtos.oem3 (.text:HwiP_disable)
                  00002e28    00000004                       : SemaphoreP_tirtos.oem3 (.text:SemaphoreP_post)
                  00002e2c    00000004                       : SwiP_tirtos.oem3 (.text:SwiP_disable)
                  00002e30    00000004                       : SwiP_tirtos.oem3 (.text:SwiP_getTrigger)
                  00002e34    00000004                       : SwiP_tirtos.oem3 (.text:SwiP_or)
                  00002e38    00000004     drivers_cc26x0r2.aem3 : PowerCC26XX.oem3 (.text:nopResourceHandler)
                  00002e3c    00000002     rom_sysbios.aem3 : rom_sysbios.obj (.text:xdc_runtime_SysCallback_defaultAbort)
                  00002e3e    00000002                      : rom_sysbios.obj (.text:xdc_runtime_SysCallback_defaultExit)
                  00002e40    00000008     (.tramp.ti_sysbios_knl_Semaphore_post__E.1)
                  00002e48    00000008     (.tramp.ti_sysbios_family_arm_m3_Hwi_disableFxn__E.1)
                  00002e50    00000008     (.tramp.ti_sysbios_knl_Semaphore_delete.1)
                  00002e58    00000008     (.tramp.xdc_runtime_Startup_startMods__I.1)
                  00002e60    00000008     (.tramp.ti_sysbios_knl_Semaphore_pend__E.1)
                  00002e68    00000008     (.tramp.ti_sysbios_knl_Clock_logTick__E.1)
                  00002e70    00000008     (.tramp.ti_sysbios_knl_Task_Params__init__S.1)
                  00002e78    00000008     (.tramp.ti_sysbios_knl_Swi_post__E.1)
                  00002e80    00000008     (.tramp.ti_sysbios_BIOS_RtsGateProxy_leave__E.1)
                  00002e88    00000008     (.tramp.ti_sysbios_knl_Swi_construct.1)
                  00002e90    00000008     (.tramp.ti_sysbios_BIOS_RtsGateProxy_enter__E.1)
                  00002e98    00000008     (.tramp.ti_sysbios_knl_Task_restore__E.1)
                  00002ea0    00000008     (.tramp.ti_sysbios_knl_Semaphore_create.1)
                  00002ea8    00000008     (.tramp.ti_sysbios_knl_Semaphore_construct.1)
                  00002eb0    00000008     (.tramp.ti_sysbios_knl_Semaphore_Params__init__S.1)
                  00002eb8    00000008     (.tramp.ti_sysbios_knl_Task_startup__E.1)
                  00002ec0    00000008     (.tramp.ti_sysbios_knl_Swi_startup__E.1)
                  00002ec8    00000008     (.tramp.ti_sysbios_hal_Hwi_startup__E.1)
                  00002ed0    00000008     (.tramp.ti_sysbios_family_arm_cc26xx_Timer_startup__E.1)
                  00002ed8    00000008     (.tramp.xdc_runtime_System_atexit__E.1)
                  00002ee0    00000008     (.tramp.ti_sysbios_BIOS_linkedWithIncorrectBootLibrary__E.1)
                  00002ee8    00000008     (.tramp.xdc_runtime_Startup_rtsDone__E.1)
                  00002ef0    00000008     (.tramp.ti_sysbios_BIOS_setThreadType__E.1)
                  00002ef8    00000008     (.tramp.ti_sysbios_knl_Task_disable__E.1)
                  00002f00    00000008     (.tramp.ti_sysbios_knl_Swi_disable__E.1)
                  00002f08    00000008     (.tramp.ti_sysbios_family_arm_m3_Hwi_construct.1)
                  00002f10    00000008     (.tramp.ti_sysbios_knl_Swi_Params__init__S.1)
                  00002f18    00000008     (.tramp.ti_sysbios_family_arm_m3_Hwi_Params__init__S.1)
                  00002f20    00000008     (.tramp.xdc_runtime_Gate_leaveSystem__E.1)
                  00002f28    00000008     (.tramp.xdc_runtime_Gate_enterSystem__E.1)
                  00002f30    00000008     (.tramp.ti_sysbios_BIOS_start__E.1)
                  00002f38    00000008     (.tramp.ti_sysbios_knl_Task_construct.1)
                  00002f40    00000008     (.tramp.xdc_runtime_System_exit__E.1)
                  00002f48    00000008     (.tramp.ti_sysbios_knl_Clock_construct.1)
                  00002f50    00000008     (.tramp.ti_sysbios_knl_Clock_Params__init__S.1)
                  00002f58    00000008     (.tramp.ti_sysbios_heaps_HeapMem_restore__E.1)
                  00002f60    00000008     (.tramp.ti_sysbios_heaps_HeapMem_Object__get__S.1)
                  00002f68    00000008     (.tramp.ti_sysbios_knl_Clock_scheduleNextTick__E.1)
                  00002f70    00000008     (.tramp.ti_sysbios_knl_Clock_walkQueueDynamic__E.1)
                  00002f78    00000008     (.tramp.ti_sysbios_knl_Clock_TimerProxy_getCurrentTick__E.1)

.const     0    00002f80    000001c3     
                  00002f80    0000004c     drivers_cc26x0r2.aem3 : PowerCC26XX.oem3 (.const:resourceDB)
                  00002fcc    00000048     hello_pem3.oem3 (.const:.string)
                  00003014    00000040     drivers_cc26x0r2.aem3 : GPIOCC26XX.oem3 (.const:$O2$$)
                  00003054    0000002c     CC2640R2_LAUNCHXL.obj (.const:BoardGpioInitTable)
                  00003080    00000028     hello_pem3.oem3 (.const:xdc_runtime_Startup_sfxnTab__A)
                  000030a8    00000018     CC2640R2_LAUNCHXL.obj (.const:PowerCC26XX_config)
                  000030c0    00000014     CC2640R2_LAUNCHXL_fxns.obj (.const:$P$T1$2)
                  000030d4    00000014     CC2640R2_LAUNCHXL.obj (.const:GPIOCC26XX_config)
                  000030e8    00000014     hello_pem3.oem3 (.const:xdc_runtime_Startup_sfxnRts__A)
                  000030fc    0000000c     hello_pem3.oem3 (.const:xdc_runtime_Startup_firstFxns__A)
                  00003108    00000008     CC2640R2_LAUNCHXL_fxns.obj (.const:$P$T0$1)
                  00003110    00000008     CC2640R2_LAUNCHXL.obj (.const:PINCC26XX_hwAttrs)
                  00003118    00000004     hello_pem3.oem3 (.const:ti_sysbios_family_arm_cc26xx_Timer_funcHookCH1__C)
                  0000311c    00000004     hello_pem3.oem3 (.const:ti_sysbios_family_arm_cc26xx_Timer_funcHookCH2__C)
                  00003120    00000004     hello_pem3.oem3 (.const:ti_sysbios_family_arm_m3_Hwi_swiDisable__C)
                  00003124    00000004     hello_pem3.oem3 (.const:ti_sysbios_family_arm_m3_Hwi_swiRestoreHwi__C)
                  00003128    00000004     hello_pem3.oem3 (.const:ti_sysbios_heaps_HeapMem_primaryHeapBaseAddr__C)
                  0000312c    00000004     hello_pem3.oem3 (.const:ti_sysbios_heaps_HeapMem_primaryHeapEndAddr__C)
                  00003130    00000004     hello_pem3.oem3 (.const:ti_sysbios_knl_Clock_tickPeriod__C)
                  00003134    00000004     hello_pem3.oem3 (.const:ti_sysbios_knl_Idle_funcList__A)
                  00003138    00000004     hello_pem3.oem3 (.const:xdc_runtime_SysMin_bufSize__C)
                  0000313c    00000004     hello_pem3.oem3 (.const:xdc_runtime_SysMin_outputFunc__C)
                  00003140    00000002     hello_pem3.oem3 (.const:xdc_runtime_SysMin_flushAtExit__C)
                  00003142    00000001     hello_pem3.oem3 (.const:xdc_runtime_Text_charTab__A)

MODULE SUMMARY

       Module                            code    ro data   rw data
       ------                            ----    -------   -------
    .\
       hello.obj                         92      0         1104   
       CC2640R2_LAUNCHXL_fxns.obj        280     28        0      
       CC2640R2_LAUNCHXL.obj             28      96        64     
       ccfg.obj                          0       88        0      
    +--+---------------------------------+-------+---------+---------+
       Total:                            400     212       1168   
                                                                  
    C:\Users\dayoung\school\ee364d\workspace_v8\hello_CC2640R2_LAUNCHXL_tirtos_ccs\Debug\configPkg\package\cfg\
       hello_pem3.oem3                   472     1059      2260   
    +--+---------------------------------+-------+---------+---------+
       Total:                            472     1059      2260   
                                                                  
    C:/ti/simplelink_cc2640r2_sdk_2_40_00_32/kernel/tirtos/packages/ti/dpl/lib/dpl_cc26x0r2.aem3
       PowerCC26XX_tirtos.oem3           300     0         8      
       SemaphoreP_tirtos.oem3            122     0         0      
       ClockP_tirtos.oem3                102     0         4      
       SwiP_tirtos.oem3                  88      0         0      
       HwiP_tirtos.oem3                  82      0         0      
    +--+---------------------------------+-------+---------+---------+
       Total:                            694     0         12     
                                                                  
    C:/ti/simplelink_cc2640r2_sdk_2_40_00_32/source/ti/devices/cc26x0r2/driverlib/bin/ccs/driverlib.lib
       sys_ctrl.obj                      740     0         8      
       setup.obj                         312     0         0      
       osc.obj                           284     0         20     
       chipinfo.obj                      122     0         0      
       adi.obj                           40      0         0      
       cpu.obj                           30      0         0      
       driverlib_release.obj             0       0         1      
    +--+---------------------------------+-------+---------+---------+
       Total:                            1528    0         29     
                                                                  
    C:/ti/simplelink_cc2640r2_sdk_2_40_00_32/source/ti/drivers/lib/drivers_cc26x0r2.aem3
       PowerCC26XX.oem3                  2060    76        276    
       PINCC26XX.oem3                    1358    0         276    
       PowerCC26XX_calibrateRCOSC.oem3   1388    0         0      
       GPIOCC26XX.oem3                   720     64        84     
       List.oem3                         34      0         0      
    +--+---------------------------------+-------+---------+---------+
       Total:                            5560    140       636    
                                                                  
    C:\Users\dayoung\school\ee364d\workspace_v8\hello_CC2640R2_LAUNCHXL_tirtos_ccs\src\sysbios\rom_sysbios.aem3
       rom_sysbios.obj                   1136    0         0      
    +--+---------------------------------+-------+---------+---------+
       Total:                            1136    0         0      
                                                                  
    C:\ti\ccsv8\tools\compiler\ti-cgt-arm_18.1.4.LTS\lib\rtsv7M3_T_le_eabi.lib
       trgmsg.c.obj                      108     0         288    
       memcpy_t2.asm.obj                 156     0         0      
       ull_div_t2.asm.obj                150     0         0      
       memset_t2.asm.obj                 122     0         0      
       copy_decompress_lzss.c.obj        104     0         0      
       hostwrite.c.obj                   88      0         0      
       cpy_tbl.c.obj                     76      0         0      
       _lock.c.obj                       26      0         8      
       args_main.c.obj                   24      0         0      
       ll_mul_t2.asm.obj                 24      0         0      
       copy_decompress_none.c.obj        14      0         0      
       copy_zero_init.c.obj              12      0         0      
       hostopen.c.obj                    0       0         8      
       stkdepth_vars.c.obj               0       0         4      
       div0.asm.obj                      2       0         0      
    +--+---------------------------------+-------+---------+---------+
       Total:                            906     0         308    
                                                                  
    C:\ti\simplelink_cc2640r2_sdk_2_40_00_32\kernel\tirtos\packages\ti\targets\arm\rtsarm\lib\auto_init.aem3
       auto_init.oem3                    160     0         0      
    +--+---------------------------------+-------+---------+---------+
       Total:                            160     0         0      
                                                                  
    C:\ti\simplelink_cc2640r2_sdk_2_40_00_32\kernel\tirtos\packages\ti\targets\arm\rtsarm\lib\boot.aem3
       boot.oem3                         68      0         0      
    +--+---------------------------------+-------+---------+---------+
       Total:                            68      0         0      
                                                                  
       Stack:                            0       0         1024   
       Linker Generated:                 360     626       0      
    +--+---------------------------------+-------+---------+---------+
       Grand Total:                      11284   2037      5437   


LINKER GENERATED COPY TABLES

__TI_cinit_table @ 00003354 records: 13, size/record: 8, table size: 104
	.data: load addr=00003148, load size=0000012f bytes, run addr=20001c78, run size=00000506 bytes, compression=lzss
	.data:ti_sysbios_family_arm_m3_Hwi_Module__state__V: load addr=00003277, load size=00000028 bytes, run addr=20000144, run size=00000034 bytes, compression=lzss
	.data:ti_sysbios_knl_Task_Module__state__V: load addr=0000329f, load size=00000021 bytes, run addr=20000100, run size=00000044 bytes, compression=lzss
	.data:ti_sysbios_BIOS_Module__state__V: load addr=000032c0, load size=0000001f bytes, run addr=200001a4, run size=00000024 bytes, compression=lzss
	.data:ti_sysbios_knl_Clock_Module__state__V: load addr=000032df, load size=0000001d bytes, run addr=20000178, run size=0000002c bytes, compression=lzss
	.data:ti_sysbios_knl_Swi_Module__state__V: load addr=000032fc, load size=00000010 bytes, run addr=200001c8, run size=0000001c bytes, compression=lzss
	.data:ti_sysbios_family_arm_cc26xx_Timer_Module__state__V: load addr=00003318, load size=0000000b bytes, run addr=200001e4, run size=00000008 bytes, compression=lzss
	.data:xdc_runtime_System_Module__state__V: load addr=00003323, load size=0000000b bytes, run addr=200001f8, run size=00000008 bytes, compression=lzss
	.bss: load addr=00003330, load size=00000008 bytes, run addr=20001208, run size=00000a69 bytes, compression=zero_init
	.data:xdc_runtime_Memory_Module__state__V: load addr=00003338, load size=00000008 bytes, run addr=20000200, run size=00000004 bytes, compression=lzss
	.data:ti_sysbios_family_arm_cc26xx_TimestampProvider_Module__state__V: load addr=00003340, load size=00000007 bytes, run addr=200001ec, run size=00000004 bytes, compression=lzss
	.data:xdc_runtime_Startup_Module__state__V: load addr=00003347, load size=00000007 bytes, run addr=200001f0, run size=00000008 bytes, compression=lzss
	.data:xdc_runtime_Error_Module__state__V: load addr=0000334e, load size=00000006 bytes, run addr=20000204, run size=00000002 bytes, compression=lzss


LINKER GENERATED HANDLER TABLE

__TI_handler_table @ 0000330c records: 3, size/record: 4, table size: 12
	index: 0, handler: __TI_decompress_lzss
	index: 1, handler: __TI_decompress_none
	index: 2, handler: __TI_zero_init


FAR CALL TRAMPOLINES

callee name               trampoline name
   callee addr  tramp addr   call addr  call info
--------------  -----------  ---------  ----------------
ti_sysbios_knl_Swi_restore__E  $Tramp$TT$L$PI$$ti_sysbios_knl_Swi_restore__E
   1001b305     0000057c     00000516   drivers_cc26x0r2.aem3 : PowerCC26XX.oem3 (.text:Power_sleep)
ti_sysbios_family_arm_m3_Hwi_restoreFxn__E  $Tramp$TT$L$PI$$ti_sysbios_family_arm_m3_Hwi_restoreFxn__E
   1001c061     00000d14     00000c80   drivers_cc26x0r2.aem3 : GPIOCC26XX.oem3 (.text:GPIO_setConfig)
                             00000cb4                         : GPIOCC26XX.oem3 (.text:GPIO_setConfig)
                             00000ecc                         : PINCC26XX.oem3 (.text:PINCC26XX_setIoCfg)
                             00000f10                         : GPIOCC26XX.oem3 (.text:GPIO_init)
                             00000f16                         : GPIOCC26XX.oem3 (.text:GPIO_init)
                             000013d2                         : PowerCC26XX.oem3 (.text:Power_releaseDependency)
                             00001488                         : PowerCC26XX.oem3 (.text:Power_setDependency)
                             000015d4                         : PowerCC26XX.oem3 (.text:switchXOSCHFclockFunc)
                             00001c8a                         : PowerCC26XX_calibrateRCOSC.oem3 (.text:PowerCC26XX_initiateCalibration)
                             0000217e                         : GPIOCC26XX.oem3 (.text:GPIO_enableInt)
                             0000268e                         : PowerCC26XX.oem3 (.text:Power_releaseConstraint)
                             000027f4                         : PowerCC26XX.oem3 (.text:Power_setConstraint)
                             00002a34                         : List.oem3 (.text:List_put)
ti_sysbios_knl_Clock_setTimeout__E  $Tramp$TT$L$PI$$ti_sysbios_knl_Clock_setTimeout__E
   1001c0e5     00000e04     00000d6e   dpl_cc26x0r2.aem3 : PowerCC26XX_tirtos.oem3 (.text:PowerCC26XX_standbyPolicy)
                             00002e18                     : ClockP_tirtos.oem3 (.text:ClockP_setTimeout)
ti_sysbios_knl_Clock_start__E  $Tramp$TT$L$PI$$ti_sysbios_knl_Clock_start__E
   1001be1f     00000e0c     00000d74   dpl_cc26x0r2.aem3 : PowerCC26XX_tirtos.oem3 (.text:PowerCC26XX_standbyPolicy)
                             00002e1c                     : ClockP_tirtos.oem3 (.text:ClockP_start)
ti_sysbios_knl_Clock_stop__E  $Tramp$TT$L$PI$$ti_sysbios_knl_Clock_stop__E
   1001bab9     00000e14     00000d80   dpl_cc26x0r2.aem3 : PowerCC26XX_tirtos.oem3 (.text:PowerCC26XX_standbyPolicy)
                             00002e20                     : ClockP_tirtos.oem3 (.text:ClockP_stop)
ti_sysbios_knl_Semaphore_post__E  $Tramp$TT$L$PI$$ti_sysbios_knl_Semaphore_post__E
   1001a3e1     00002e40     00002e28   dpl_cc26x0r2.aem3 : SemaphoreP_tirtos.oem3 (.text:SemaphoreP_post)
ti_sysbios_family_arm_m3_Hwi_disableFxn__E  $Tramp$TT$L$PI$$ti_sysbios_family_arm_m3_Hwi_disableFxn__E
   1001bf85     00002e48     00002e24   dpl_cc26x0r2.aem3 : HwiP_tirtos.oem3 (.text:HwiP_disable)
ti_sysbios_knl_Semaphore_delete  $Tramp$TT$L$PI$$ti_sysbios_knl_Semaphore_delete
   1001c109     00002e50     00002dba   dpl_cc26x0r2.aem3 : SemaphoreP_tirtos.oem3 (.text:SemaphoreP_delete)
xdc_runtime_Startup_startMods__I  $Tramp$TT$L$PI$$xdc_runtime_Startup_startMods__I
   1001c129     00002e58     00002d08   hello_pem3.oem3 (.text:xdc_runtime_Startup_exec__I)
ti_sysbios_knl_Semaphore_pend__E  $Tramp$TT$L$PI$$ti_sysbios_knl_Semaphore_pend__E
   10019b05     00002e60     00002cee   dpl_cc26x0r2.aem3 : SemaphoreP_tirtos.oem3 (.text:SemaphoreP_pend)
ti_sysbios_knl_Clock_logTick__E  $Tramp$TT$L$PI$$ti_sysbios_knl_Clock_logTick__E
   1001b843     00002e68     00002cda   hello_pem3.oem3 (.text:ti_sysbios_knl_Clock_doTick__I)
ti_sysbios_knl_Task_Params__init__S  $Tramp$TT$L$PI$$ti_sysbios_knl_Task_Params__init__S
   1001c021     00002e70     00002ca8   hello.obj (.text:ti_sysbios_knl_Task_Params_init)
ti_sysbios_knl_Swi_post__E  $Tramp$TT$L$PI$$ti_sysbios_knl_Swi_post__E
   1001b011     00002e78     00002c50   rom_sysbios.aem3 : rom_sysbios.obj (.text:ti_sysbios_knl_Swi_or__E)
                             00002ce2   hello_pem3.oem3 (.text:ti_sysbios_knl_Clock_doTick__I)
ti_sysbios_BIOS_RtsGateProxy_leave__E  $Tramp$TT$L$PI$$ti_sysbios_BIOS_RtsGateProxy_leave__E
   1001c095     00002e80     00002c32   hello_pem3.oem3 (.text:ti_sysbios_BIOS_rtsUnlock__I)
ti_sysbios_knl_Swi_construct  $Tramp$TT$L$PI$$ti_sysbios_knl_Swi_construct
   1001ad79     00002e88     00002b92   rom_sysbios.aem3 : rom_sysbios.obj (.text:ti_sysbios_knl_Swi_construct2__E)
ti_sysbios_BIOS_RtsGateProxy_enter__E  $Tramp$TT$L$PI$$ti_sysbios_BIOS_RtsGateProxy_enter__E
   1001c091     00002e90     00002aa2   hello_pem3.oem3 (.text:ti_sysbios_BIOS_rtsLock__I)
ti_sysbios_knl_Task_restore__E  $Tramp$TT$L$PI$$ti_sysbios_knl_Task_restore__E
   1001b7f5     00002e98     00002a8e   dpl_cc26x0r2.aem3 : PowerCC26XX_tirtos.oem3 (.text:PowerCC26XX_schedulerRestore)
ti_sysbios_knl_Semaphore_create  $Tramp$TT$L$PI$$ti_sysbios_knl_Semaphore_create
   1001b2d1     00002ea0     000028d8   dpl_cc26x0r2.aem3 : SemaphoreP_tirtos.oem3 (.text:SemaphoreP_createBinary)
ti_sysbios_knl_Semaphore_construct  $Tramp$TT$L$PI$$ti_sysbios_knl_Semaphore_construct
   1001b45d     00002ea8     000028ae   dpl_cc26x0r2.aem3 : SemaphoreP_tirtos.oem3 (.text:SemaphoreP_constructBinary)
ti_sysbios_knl_Semaphore_Params__init__S  $Tramp$TT$L$PI$$ti_sysbios_knl_Semaphore_Params__init__S
   1001c009     00002eb0     0000289e   dpl_cc26x0r2.aem3 : SemaphoreP_tirtos.oem3 (.text:SemaphoreP_constructBinary)
                             000028c8                     : SemaphoreP_tirtos.oem3 (.text:SemaphoreP_createBinary)
ti_sysbios_knl_Task_startup__E  $Tramp$TT$L$PI$$ti_sysbios_knl_Task_startup__E
   1001c125     00002eb8     00002854   hello_pem3.oem3 (.text:ti_sysbios_BIOS_startFunc__I)
ti_sysbios_knl_Swi_startup__E  $Tramp$TT$L$PI$$ti_sysbios_knl_Swi_startup__E
   1001c085     00002ec0     00002850   hello_pem3.oem3 (.text:ti_sysbios_BIOS_startFunc__I)
ti_sysbios_hal_Hwi_startup__E  $Tramp$TT$L$PI$$ti_sysbios_hal_Hwi_startup__E
   1001c04b     00002ec8     0000284c   hello_pem3.oem3 (.text:ti_sysbios_BIOS_startFunc__I)
ti_sysbios_family_arm_cc26xx_Timer_startup__E  $Tramp$TT$L$PI$$ti_sysbios_family_arm_cc26xx_Timer_startup__E
   1001b4e9     00002ed0     00002848   hello_pem3.oem3 (.text:ti_sysbios_BIOS_startFunc__I)
xdc_runtime_System_atexit__E  $Tramp$TT$L$PI$$xdc_runtime_System_atexit__E
   1001c581     00002ed8     00002840   hello_pem3.oem3 (.text:ti_sysbios_BIOS_startFunc__I)
ti_sysbios_BIOS_linkedWithIncorrectBootLibrary__E  $Tramp$TT$L$PI$$ti_sysbios_BIOS_linkedWithIncorrectBootLibrary__E
   1001a683     00002ee0     0000283a   hello_pem3.oem3 (.text:ti_sysbios_BIOS_startFunc__I)
xdc_runtime_Startup_rtsDone__E  $Tramp$TT$L$PI$$xdc_runtime_Startup_rtsDone__E
   1001c769     00002ee8     00002832   hello_pem3.oem3 (.text:ti_sysbios_BIOS_startFunc__I)
ti_sysbios_BIOS_setThreadType__E  $Tramp$TT$L$PI$$ti_sysbios_BIOS_setThreadType__E
   1001bea1     00002ef0     0000280c   hello_pem3.oem3 (.text:ti_sysbios_BIOS_atExitFunc__I)
                             00002c7c   hello_pem3.oem3 (.text:ti_sysbios_BIOS_errorRaiseHook__I)
                             00002c8c   hello_pem3.oem3 (.text:ti_sysbios_BIOS_exitFunc__I)
ti_sysbios_knl_Task_disable__E  $Tramp$TT$L$PI$$ti_sysbios_knl_Task_disable__E
   1001bf31     00002ef8     00002806   hello_pem3.oem3 (.text:ti_sysbios_BIOS_atExitFunc__I)
                             00002a5e   dpl_cc26x0r2.aem3 : PowerCC26XX_tirtos.oem3 (.text:PowerCC26XX_schedulerDisable)
ti_sysbios_knl_Swi_disable__E  $Tramp$TT$L$PI$$ti_sysbios_knl_Swi_disable__E
   1001bf11     00002f00     00002802   hello_pem3.oem3 (.text:ti_sysbios_BIOS_atExitFunc__I)
                             00002e2c   dpl_cc26x0r2.aem3 : SwiP_tirtos.oem3 (.text:SwiP_disable)
ti_sysbios_family_arm_m3_Hwi_construct  $Tramp$TT$L$PI$$ti_sysbios_family_arm_m3_Hwi_construct
   1001aabd     00002f08     000024c2   rom_sysbios.aem3 : rom_sysbios.obj (.text:ti_sysbios_family_arm_m3_Hwi_construct2__E)
ti_sysbios_knl_Swi_Params__init__S  $Tramp$TT$L$PI$$ti_sysbios_knl_Swi_Params__init__S
   1001c015     00002f10     0000244a   dpl_cc26x0r2.aem3 : SwiP_tirtos.oem3 (.text:SwiP_construct)
ti_sysbios_family_arm_m3_Hwi_Params__init__S  $Tramp$TT$L$PI$$ti_sysbios_family_arm_m3_Hwi_Params__init__S
   1001bf79     00002f18     000023d0   dpl_cc26x0r2.aem3 : HwiP_tirtos.oem3 (.text:HwiP_construct)
xdc_runtime_Gate_leaveSystem__E  $Tramp$TT$L$PI$$xdc_runtime_Gate_leaveSystem__E
   1001c789     00002f20     00002320   rom_sysbios.aem3 : rom_sysbios.obj (.text:xdc_runtime_SysMin_flush__E)
                             00002792                    : rom_sysbios.obj (.text:xdc_runtime_SysMin_putch__E)
xdc_runtime_Gate_enterSystem__E  $Tramp$TT$L$PI$$xdc_runtime_Gate_enterSystem__E
   1001c795     00002f28     000022f2   rom_sysbios.aem3 : rom_sysbios.obj (.text:xdc_runtime_SysMin_flush__E)
                             00002776                    : rom_sysbios.obj (.text:xdc_runtime_SysMin_putch__E)
ti_sysbios_BIOS_start__E  $Tramp$TT$L$PI$$ti_sysbios_BIOS_start__E
   1001beb1     00002f30     000022da   hello.obj (.text:main)
ti_sysbios_knl_Task_construct  $Tramp$TT$L$PI$$ti_sysbios_knl_Task_construct
   1001ae19     00002f38     000022d6   hello.obj (.text:main)
xdc_runtime_System_exit__E  $Tramp$TT$L$PI$$xdc_runtime_System_exit__E
   1001c6d5     00002f40     00002294   boot.aem3 : boot.oem3 (.text)
                             00002c92   hello_pem3.oem3 (.text:ti_sysbios_BIOS_exitFunc__I)
ti_sysbios_knl_Clock_construct  $Tramp$TT$L$PI$$ti_sysbios_knl_Clock_construct
   1001b269     00002f48     0000212a   dpl_cc26x0r2.aem3 : ClockP_tirtos.oem3 (.text:ClockP_construct)
ti_sysbios_knl_Clock_Params__init__S  $Tramp$TT$L$PI$$ti_sysbios_knl_Clock_Params__init__S
   1001bfc1     00002f50     00002110   dpl_cc26x0r2.aem3 : ClockP_tirtos.oem3 (.text:ClockP_construct)
ti_sysbios_heaps_HeapMem_restore__E  $Tramp$TT$L$PI$$ti_sysbios_heaps_HeapMem_restore__E
   1001bf41     00002f58     00001ec0   rom_sysbios.aem3 : rom_sysbios.obj (.text:ti_sysbios_heaps_HeapMem_initPrimary__I)
ti_sysbios_heaps_HeapMem_Object__get__S  $Tramp$TT$L$PI$$ti_sysbios_heaps_HeapMem_Object__get__S
   1001b5c5     00002f60     00001e88   rom_sysbios.aem3 : rom_sysbios.obj (.text:ti_sysbios_heaps_HeapMem_initPrimary__I)
ti_sysbios_knl_Clock_scheduleNextTick__E  $Tramp$TT$L$PI$$ti_sysbios_knl_Clock_scheduleNextTick__E
   1001bca9     00002f68     0000184a   rom_sysbios.aem3 : rom_sysbios.obj (.text:ti_sysbios_knl_Clock_workFuncDynamic__E)
ti_sysbios_knl_Clock_walkQueueDynamic__E  $Tramp$TT$L$PI$$ti_sysbios_knl_Clock_walkQueueDynamic__E
   1001a2f1     00002f70     00001812   rom_sysbios.aem3 : rom_sysbios.obj (.text:ti_sysbios_knl_Clock_workFuncDynamic__E)
                             0000182e                    : rom_sysbios.obj (.text:ti_sysbios_knl_Clock_workFuncDynamic__E)
ti_sysbios_knl_Clock_TimerProxy_getCurrentTick__E  $Tramp$TT$L$PI$$ti_sysbios_knl_Clock_TimerProxy_getCurrentTick__E
   1001bee1     00002f78     000017e0   rom_sysbios.aem3 : rom_sysbios.obj (.text:ti_sysbios_knl_Clock_workFuncDynamic__E)
                             000028f6                    : rom_sysbios.obj (.text:ti_sysbios_knl_Clock_getTicksUntilInterrupt__E)

[45 trampolines]
[71 trampoline calls]


GLOBAL SYMBOLS: SORTED ALPHABETICALLY BY Name 

address   name                                                                      
-------   ----                                                                      
00003054  BoardGpioInitTable                                                        
00002e07  Board_initHook                                                            
000025bb  C$$IO$$                                                                   
00002b39  CC2640R2_LAUNCHXL_initGeneral                                             
00001a19  CC2640R2_LAUNCHXL_sendExtFlashByte                                        
00002335  CC2640R2_LAUNCHXL_shutDownExtFlash                                        
00000fb5  CC2640R2_LAUNCHXL_wakeUpExtFlash                                          
00002dfd  ClockP_Params_init                                                        
000020f5  ClockP_construct                                                          
1001b29d  ClockP_getSystemTicks                                                     
00002e19  ClockP_setTimeout                                                         
00002e1d  ClockP_start                                                              
00002e21  ClockP_stop                                                               
20001c6c  ClockP_tickPeriod                                                         
000030d4  GPIOCC26XX_config                                                         
00002145  GPIO_enableInt                                                            
000027a1  GPIO_hwiIntFxn                                                            
00000ef9  GPIO_init                                                                 
00002635  GPIO_setCallback                                                          
00000c05  GPIO_setConfig                                                            
00001000  HEAPSIZE                                                                  
00001ff1  HOSTwrite                                                                 
00002d11  HwiP_Params_init                                                          
000023b5  HwiP_construct                                                            
00002e25  HwiP_disable                                                              
1001c061  HwiP_restore                                                              
00002a19  List_put                                                                  
00002d6b  NOROM_CPUcpsid                                                            
00002d77  NOROM_CPUcpsie                                                            
00002e0f  NOROM_CPUdelay                                                            
00002861  NOROM_ChipInfo_GetChipFamily                                              
00002911  NOROM_ChipInfo_GetChipType                                                
00002bc5  NOROM_ChipInfo_GetPackageType                                             
00001bf9  NOROM_OSCHF_AttemptToSwitchToXosc                                         
00002225  NOROM_OSCHF_SwitchToRcOscTurnOffXosc                                      
00002989  NOROM_OSCHF_TurnOnXosc                                                    
000023f5  NOROM_OSC_HPOSCRelativeFrequencyOffsetGet                                 
00002d83  NOROM_OSC_HPOSCRelativeFrequencyOffsetToRFCoreFormatConvert               
000014a1  NOROM_SetupTrimDevice                                                     
00001b19  NOROM_SysCtrlAdjustRechargeAfterPowerDown                                 
00000585  NOROM_SysCtrlSetRechargeBeforePowerDown                                   
00001d3d  NOROM_SysCtrl_DCDC_VoltageConditionalControl                              
00002d41  NOROM_ThisLibraryIsFor_CC26x0R2_HaltIfViolated                            
00002d21  PINCC26XX_getPinCount                                                     
00003110  PINCC26XX_hwAttrs                                                         
00001da5  PIN_add                                                                   
00002afd  PIN_close                                                                 
00000791  PIN_init                                                                  
000015f1  PIN_open                                                                  
00002d8f  PIN_registerIntCb                                                         
00002049  PIN_remove                                                                
000024e5  PIN_setConfig                                                             
0000251d  PIN_setInterrupt                                                          
00002555  PIN_setOutputValue                                                        
00001f39  PowerCC26XX_RCOSC_clockFunc                                               
0000003d  PowerCC26XX_auxISR                                                        
00001ed9  PowerCC26XX_calibrate                                                     
000030a8  PowerCC26XX_config                                                        
00000949  PowerCC26XX_doCalibrate                                                   
00001c65  PowerCC26XX_initiateCalibration                                           
20001d8c  PowerCC26XX_module                                                        
00002a5d  PowerCC26XX_schedulerDisable                                              
00002a7d  PowerCC26XX_schedulerRestore                                              
00000d1d  PowerCC26XX_standbyPolicy                                                 
20001c58  PowerCC26XX_swiKey                                                        
20001c54  PowerCC26XX_taskKey                                                       
00002d9d  Power_getConstraintMask                                                   
00002da9  Power_getDependencyCount                                                  
00002b1b  Power_getTransitionLatency                                                
00002bdd  Power_idleFunc                                                            
00000ad9  Power_init                                                                
00002939  Power_registerNotify                                                      
00002669  Power_releaseConstraint                                                   
00001331  Power_releaseDependency                                                   
000027d1  Power_setConstraint                                                       
000013ed  Power_setDependency                                                       
00000351  Power_sleep                                                               
00002269  ResetISR                                                                  
UNDEFED   SHT$$INIT_ARRAY$$Base                                                     
UNDEFED   SHT$$INIT_ARRAY$$Limit                                                    
00002961  SafeHapiVoid                                                              
0000288d  SemaphoreP_constructBinary                                                
000028b9  SemaphoreP_createBinary                                                   
00002db5  SemaphoreP_delete                                                         
00002ced  SemaphoreP_pend                                                           
00002e29  SemaphoreP_post                                                           
00002d31  SwiP_Params_init                                                          
00002431  SwiP_construct                                                            
00002e2d  SwiP_disable                                                              
00002e31  SwiP_getTrigger                                                           
00002e35  SwiP_or                                                                   
1001b305  SwiP_restore                                                              
00000000  __ASM__                                                                   
20001a08  __CIOBUF_                                                                 
00000084  __ISA__                                                                   
00000096  __PLAT__                                                                  
20005000  __STACK_END                                                               
00000400  __STACK_SIZE                                                              
000000bd  __TARG__                                                                  
00003354  __TI_CINIT_Base                                                           
000033bc  __TI_CINIT_Limit                                                          
0000330c  __TI_Handler_Table_Base                                                   
00003318  __TI_Handler_Table_Limit                                                  
00001691  __TI_auto_init                                                            
00001e0d  __TI_decompress_lzss                                                      
00002d4f  __TI_decompress_none                                                      
ffffffff  __TI_pprof_out_hndl                                                       
ffffffff  __TI_prof_data_size                                                       
ffffffff  __TI_prof_data_start                                                      
0000269d  __TI_readmsg                                                              
00003148  __TI_static_base__                                                        
0000258d  __TI_writemsg                                                             
00002dd9  __TI_zero_init                                                            
000000e2  __TRDR__                                                                  
00002633  __aeabi_idiv0                                                             
00002633  __aeabi_ldiv0                                                             
00002c0d  __aeabi_lmul                                                              
00001a9d  __aeabi_memclr                                                            
00001a9d  __aeabi_memclr4                                                           
00001a9d  __aeabi_memclr8                                                           
00001731  __aeabi_memcpy                                                            
00001731  __aeabi_memcpy4                                                           
00001731  __aeabi_memcpy8                                                           
00001a9f  __aeabi_memset                                                            
00001a9f  __aeabi_memset4                                                           
00001a9f  __aeabi_memset8                                                           
00001865  __aeabi_uldivmod                                                          
ffffffff  __binit__                                                                 
ffffffff  __c_args__                                                                
0001ffa8  __ccfg                                                                    
20001208  __primary_heap_end__                                                      
20000208  __primary_heap_start__                                                    
20004c00  __stack                                                                   
00002bf5  _args_main                                                                
00002269  _c_int00                                                                  
200020fc  _lock                                                                     
000018fb  _nop                                                                      
00002dc1  _register_lock                                                            
00002dcd  _register_unlock                                                          
20002100  _unlock                                                                   
00001b17  adc_task_function                                                         
20001bf0  adc_task_struct                                                           
ffffffff  binit                                                                     
00002191  copy_in                                                                   
20001c70  driverlib_release_0_53646                                                 
200020e0  gpioCallbackFunctions                                                     
20001fc0  gpioPinConfigs                                                            
00003014  inPinTypes                                                                
000022ad  main                                                                      
2000216c  main_func_sp                                                              
00001731  memcpy                                                                    
00001aa5  memset                                                                    
00003020  outPinStrengths                                                           
0000302c  outPinTypes                                                               
20001c64  parmbuf                                                                   
20001d10  pinHandleTable                                                            
20001c7c  pinLowerBound                                                             
20001c78  pinUpperBound                                                             
00002f80  resourceDB                                                                
200001a4  ti_sysbios_BIOS_Module__state__V                                          
1001b9d9  ti_sysbios_BIOS_RtsGateProxy_Handle__label__S                             
1001b9d9  ti_sysbios_BIOS_RtsGateProxy_Handle__label__S__mangled__                  
1001b88d  ti_sysbios_BIOS_RtsGateProxy_Object__delete__S                            
1001bfb5  ti_sysbios_BIOS_RtsGateProxy_Params__init__S                              
1001bfb5  ti_sysbios_BIOS_RtsGateProxy_Params__init__S__mangled__                   
1001c091  ti_sysbios_BIOS_RtsGateProxy_enter__E                                     
1001c095  ti_sysbios_BIOS_RtsGateProxy_leave__E                                     
1001c0bd  ti_sysbios_BIOS_RtsGateProxy_query__E                                     
1001c0bd  ti_sysbios_BIOS_RtsGateProxy_query__E__mangled__                          
00002801  ti_sysbios_BIOS_atExitFunc__I                                             
00002c6d  ti_sysbios_BIOS_errorRaiseHook__I                                         
00002c83  ti_sysbios_BIOS_exitFunc__I                                               
1001be81  ti_sysbios_BIOS_exit__E                                                   
1001be91  ti_sysbios_BIOS_getCpuFreq__E                                             
1001a683  ti_sysbios_BIOS_linkedWithIncorrectBootLibrary__E                         
00002caf  ti_sysbios_BIOS_nullFunc__I                                               
000029ad  ti_sysbios_BIOS_registerRTSLock__I                                        
000029d1  ti_sysbios_BIOS_removeRTSLock__I                                          
00002a9d  ti_sysbios_BIOS_rtsLock__I                                                
00002c25  ti_sysbios_BIOS_rtsUnlock__I                                              
1001bea1  ti_sysbios_BIOS_setThreadType__E                                          
00002831  ti_sysbios_BIOS_startFunc__I                                              
1001beb1  ti_sysbios_BIOS_start__E                                                  
000014a1  ti_sysbios_family_arm_cc26xx_Boot_trimDevice                              
00001280  ti_sysbios_family_arm_cc26xx_Timer_Module__id__C                          
1001b8f9  ti_sysbios_family_arm_cc26xx_Timer_Module__startupDone__S                 
200001e4  ti_sysbios_family_arm_cc26xx_Timer_Module__state__V                       
1001b845  ti_sysbios_family_arm_cc26xx_Timer_Module_startup__E                      
20001f40  ti_sysbios_family_arm_cc26xx_Timer_Object__table__V                       
00002abd  ti_sysbios_family_arm_cc26xx_Timer_dynamicStub__E                         
00003118  ti_sysbios_family_arm_cc26xx_Timer_funcHookCH1__C                         
0000311c  ti_sysbios_family_arm_cc26xx_Timer_funcHookCH2__C                         
00002cc5  ti_sysbios_family_arm_cc26xx_Timer_getCount64__E                          
000025c5  ti_sysbios_family_arm_cc26xx_Timer_getCurrentTick__E                      
1001c099  ti_sysbios_family_arm_cc26xx_Timer_getExpiredTicks__E                     
000029f5  ti_sysbios_family_arm_cc26xx_Timer_getMaxTicks__E                         
1001c09d  ti_sysbios_family_arm_cc26xx_Timer_getPeriod__E                           
00002705  ti_sysbios_family_arm_cc26xx_Timer_initDevice__I                          
10019f25  ti_sysbios_family_arm_cc26xx_Timer_periodicStub__E                        
1001b4bd  ti_sysbios_family_arm_cc26xx_Timer_postInit__I                            
000025fd  ti_sysbios_family_arm_cc26xx_Timer_setNextTick__E                         
1001c0a1  ti_sysbios_family_arm_cc26xx_Timer_setPeriod__E                           
000021dd  ti_sysbios_family_arm_cc26xx_Timer_setThreshold__I                        
000018fd  ti_sysbios_family_arm_cc26xx_Timer_start__E                               
000011f8  ti_sysbios_family_arm_cc26xx_Timer_startupNeeded__C                       
1001b4e9  ti_sysbios_family_arm_cc26xx_Timer_startup__E                             
200001ec  ti_sysbios_family_arm_cc26xx_TimestampProvider_Module__state__V           
1001b919  ti_sysbios_family_arm_cc26xx_TimestampProvider_Module_startup__E          
00002d5d  ti_sysbios_family_arm_cc26xx_TimestampProvider_get32__E                   
1001b77d  ti_sysbios_family_arm_cc26xx_TimestampProvider_get64__E                   
1001bf6b  ti_sysbios_family_arm_cc26xx_TimestampProvider_getFreq__E                 
00001282  ti_sysbios_family_arm_cc26xx_TimestampProvider_useClockTimer__C           
000011fc  ti_sysbios_family_arm_m3_Hwi_E_alreadyDefined__C                          
00001200  ti_sysbios_family_arm_m3_Hwi_E_hwiLimitExceeded__C                        
1001a755  ti_sysbios_family_arm_m3_Hwi_Instance_finalize__E                         
10019fc1  ti_sysbios_family_arm_m3_Hwi_Instance_init__E                             
2000217c  ti_sysbios_family_arm_m3_Hwi_Module_State_0_excActive__A                  
20002170  ti_sysbios_family_arm_m3_Hwi_Module_State_0_excContext__A                 
20002174  ti_sysbios_family_arm_m3_Hwi_Module_State_0_excStack__A                   
00001284  ti_sysbios_family_arm_m3_Hwi_Module__id__C                                
20002104  ti_sysbios_family_arm_m3_Hwi_Module__root__V                              
1001b939  ti_sysbios_family_arm_m3_Hwi_Module__startupDone__S                       
20000144  ti_sysbios_family_arm_m3_Hwi_Module__state__V                             
1001aeb5  ti_sysbios_family_arm_m3_Hwi_Module_startup__E                            
00001204  ti_sysbios_family_arm_m3_Hwi_NUM_INTERRUPTS__C                            
00001070  ti_sysbios_family_arm_m3_Hwi_Object__DESC__C                              
1001c9e8  ti_sysbios_family_arm_m3_Hwi_Object__PARAMS__C                            
00001208  ti_sysbios_family_arm_m3_Hwi_Object__count__C                             
1001a7b9  ti_sysbios_family_arm_m3_Hwi_Object__create__S                            
1001b959  ti_sysbios_family_arm_m3_Hwi_Object__delete__S                            
1001bc39  ti_sysbios_family_arm_m3_Hwi_Object__destruct__S                          
1001b515  ti_sysbios_family_arm_m3_Hwi_Object__get__S                               
0000120c  ti_sysbios_family_arm_m3_Hwi_Object__table__C                             
200020b0  ti_sysbios_family_arm_m3_Hwi_Object__table__V                             
1001bf79  ti_sysbios_family_arm_m3_Hwi_Params__init__S                              
00001210  ti_sysbios_family_arm_m3_Hwi_ccr__C                                       
1001aabd  ti_sysbios_family_arm_m3_Hwi_construct                                    
000024a9  ti_sysbios_family_arm_m3_Hwi_construct2__E                                
1001a8e5  ti_sysbios_family_arm_m3_Hwi_create                                       
1001c0a5  ti_sysbios_family_arm_m3_Hwi_delete                                       
1001c0a9  ti_sysbios_family_arm_m3_Hwi_destruct                                     
1001bf85  ti_sysbios_family_arm_m3_Hwi_disableFxn__E                                
1001af45  ti_sysbios_family_arm_m3_Hwi_disableInterrupt__E                          
1001a81d  ti_sysbios_family_arm_m3_Hwi_dispatchC__I                                 
20001b28  ti_sysbios_family_arm_m3_Hwi_dispatchTable                                
1001c7a5  ti_sysbios_family_arm_m3_Hwi_dispatch__I                                  
1001c043  ti_sysbios_family_arm_m3_Hwi_doSwiRestore__I                              
1001c05b  ti_sysbios_family_arm_m3_Hwi_doTaskRestore__I                             
1001bf91  ti_sysbios_family_arm_m3_Hwi_enableFxn__E                                 
1001af89  ti_sysbios_family_arm_m3_Hwi_enableInterrupt__E                           
1001c901  ti_sysbios_family_arm_m3_Hwi_excHandlerAsm__I                             
00001214  ti_sysbios_family_arm_m3_Hwi_excHandlerFunc__C                            
1001b979  ti_sysbios_family_arm_m3_Hwi_excHandler__I                                
1001b099  ti_sysbios_family_arm_m3_Hwi_getStackInfo__E                              
1001a171  ti_sysbios_family_arm_m3_Hwi_initNVIC__E                                  
1001c8b9  ti_sysbios_family_arm_m3_Hwi_initStacks__E                                
00001218  ti_sysbios_family_arm_m3_Hwi_nullIsrFunc__C                               
0000121c  ti_sysbios_family_arm_m3_Hwi_numSparseInterrupts__C                       
e000e000  ti_sysbios_family_arm_m3_Hwi_nvic                                         
1001c93f  ti_sysbios_family_arm_m3_Hwi_pendSV__I                                    
1001bdc1  ti_sysbios_family_arm_m3_Hwi_plug__E                                      
10019e75  ti_sysbios_family_arm_m3_Hwi_postInit__I                                  
00001220  ti_sysbios_family_arm_m3_Hwi_priGroup__C                                  
20000000  ti_sysbios_family_arm_m3_Hwi_ramVectors                                   
00000000  ti_sysbios_family_arm_m3_Hwi_resetVectors                                 
1001c061  ti_sysbios_family_arm_m3_Hwi_restoreFxn__E                                
1001c957  ti_sysbios_family_arm_m3_Hwi_return                                       
1001bc55  ti_sysbios_family_arm_m3_Hwi_setPriority__E                               
1001c04b  ti_sysbios_family_arm_m3_Hwi_startup__E                                   
00003120  ti_sysbios_family_arm_m3_Hwi_swiDisable__C                                
00003124  ti_sysbios_family_arm_m3_Hwi_swiRestoreHwi__C                             
1001be35  ti_sysbios_family_arm_m3_Hwi_switchFromBootStack__E                       
1001c0ad  ti_sysbios_family_arm_m3_TaskSupport_Module__startupDone__S               
1001c86d  ti_sysbios_family_arm_m3_TaskSupport_buildTaskStack                       
1001bf9d  ti_sysbios_family_arm_m3_TaskSupport_getStackAlignment__E                 
1001c959  ti_sysbios_family_arm_m3_TaskSupport_glue                                 
00001224  ti_sysbios_family_arm_m3_TaskSupport_stackAlignment__C                    
1001b155  ti_sysbios_family_arm_m3_TaskSupport_start__E                             
1001c969  ti_sysbios_family_arm_m3_TaskSupport_swap__E                              
1001c921  ti_sysbios_family_xxx_Hwi_switchAndRunFunc                                
1001b999  ti_sysbios_gates_GateHwi_Handle__label__S                                 
1001b153  ti_sysbios_gates_GateHwi_Instance_init__E                                 
00001028  ti_sysbios_gates_GateHwi_Module__FXNS__C                                  
00001286  ti_sysbios_gates_GateHwi_Module__id__C                                    
2000210c  ti_sysbios_gates_GateHwi_Module__root__V                                  
00001090  ti_sysbios_gates_GateHwi_Object__DESC__C                                  
1001cad8  ti_sysbios_gates_GateHwi_Object__PARAMS__C                                
1001b869  ti_sysbios_gates_GateHwi_Object__create__S                                
1001b9b9  ti_sysbios_gates_GateHwi_Object__delete__S                                
1001bfa9  ti_sysbios_gates_GateHwi_enter__E                                         
1001c067  ti_sysbios_gates_GateHwi_leave__E                                         
1001c0b1  ti_sysbios_gates_GateHwi_query__E                                         
1001b9d9  ti_sysbios_gates_GateMutex_Handle__label__S                               
1001cb68  ti_sysbios_gates_GateMutex_Instance_State_sem__O                          
1001bec1  ti_sysbios_gates_GateMutex_Instance_finalize__E                           
1001bc71  ti_sysbios_gates_GateMutex_Instance_init__E                               
0000104c  ti_sysbios_gates_GateMutex_Module__FXNS__C                                
00001288  ti_sysbios_gates_GateMutex_Module__id__C                                  
20002114  ti_sysbios_gates_GateMutex_Module__root__V                                
000010b0  ti_sysbios_gates_GateMutex_Object__DESC__C                                
1001caf0  ti_sysbios_gates_GateMutex_Object__PARAMS__C                              
1001b36d  ti_sysbios_gates_GateMutex_Object__create__S                              
1001b88d  ti_sysbios_gates_GateMutex_Object__delete__S                              
1001b9f9  ti_sysbios_gates_GateMutex_Object__destruct__S                            
20001f88  ti_sysbios_gates_GateMutex_Object__table__V                               
1001bfb5  ti_sysbios_gates_GateMutex_Params__init__S                                
1001b541  ti_sysbios_gates_GateMutex_construct                                      
1001b39d  ti_sysbios_gates_GateMutex_create                                         
1001c0b5  ti_sysbios_gates_GateMutex_delete                                         
1001c0b9  ti_sysbios_gates_GateMutex_destruct                                       
1001b3cd  ti_sysbios_gates_GateMutex_enter__E                                       
1001bdd9  ti_sysbios_gates_GateMutex_leave__E                                       
1001c0bd  ti_sysbios_gates_GateMutex_query__E                                       
1001b939  ti_sysbios_hal_Hwi_HwiProxy_Module__startupDone__S                        
1001b939  ti_sysbios_hal_Hwi_HwiProxy_Module__startupDone__S__mangled__             
1001bed1  ti_sysbios_hal_Hwi_HwiProxy_Object__create__S                             
1001b959  ti_sysbios_hal_Hwi_HwiProxy_Object__delete__S                             
1001bf79  ti_sysbios_hal_Hwi_HwiProxy_Params__init__S                               
1001bf79  ti_sysbios_hal_Hwi_HwiProxy_Params__init__S__mangled__                    
1001bc8d  ti_sysbios_hal_Hwi_HwiProxy_create                                        
1001c0c1  ti_sysbios_hal_Hwi_HwiProxy_delete                                        
1001af45  ti_sysbios_hal_Hwi_HwiProxy_disableInterrupt__E                           
1001af45  ti_sysbios_hal_Hwi_HwiProxy_disableInterrupt__E__mangled__                
1001af89  ti_sysbios_hal_Hwi_HwiProxy_enableInterrupt__E                            
1001af89  ti_sysbios_hal_Hwi_HwiProxy_enableInterrupt__E__mangled__                 
1001b099  ti_sysbios_hal_Hwi_HwiProxy_getStackInfo__E                               
1001b099  ti_sysbios_hal_Hwi_HwiProxy_getStackInfo__E__mangled__                    
1001c04b  ti_sysbios_hal_Hwi_HwiProxy_startup__E                                    
1001c04b  ti_sysbios_hal_Hwi_HwiProxy_startup__E__mangled__                         
1001be35  ti_sysbios_hal_Hwi_HwiProxy_switchFromBootStack__E                        
1001be35  ti_sysbios_hal_Hwi_HwiProxy_switchFromBootStack__E__mangled__             
1001c039  ti_sysbios_hal_Hwi_Instance_finalize__E                                   
1001b81d  ti_sysbios_hal_Hwi_Instance_init__E                                       
2000211c  ti_sysbios_hal_Hwi_Module__root__V                                        
1001be5d  ti_sysbios_hal_Hwi_Module_startup__E                                      
000010d0  ti_sysbios_hal_Hwi_Object__DESC__C                                        
1001ca18  ti_sysbios_hal_Hwi_Object__PARAMS__C                                      
1001ba19  ti_sysbios_hal_Hwi_Object__delete__S                                      
1001a881  ti_sysbios_hal_Hwi_create                                                 
1001c0c5  ti_sysbios_hal_Hwi_delete                                                 
1001af45  ti_sysbios_hal_Hwi_disableInterrupt__E                                    
1001af45  ti_sysbios_hal_Hwi_disableInterrupt__E                                    
1001af89  ti_sysbios_hal_Hwi_enableInterrupt__E                                     
1001af89  ti_sysbios_hal_Hwi_enableInterrupt__E                                     
1001b099  ti_sysbios_hal_Hwi_getStackInfo__E                                        
1001b099  ti_sysbios_hal_Hwi_getStackInfo__E                                        
1001b56d  ti_sysbios_hal_Hwi_initStack                                              
1001c04b  ti_sysbios_hal_Hwi_startup__E                                             
1001c04b  ti_sysbios_hal_Hwi_startup__E                                             
1001be35  ti_sysbios_hal_Hwi_switchFromBootStack__E                                 
1001be35  ti_sysbios_hal_Hwi_switchFromBootStack__E                                 
00001228  ti_sysbios_heaps_HeapMem_E_memory__C                                      
1001ba39  ti_sysbios_heaps_HeapMem_Handle__label__S                                 
1001b18d  ti_sysbios_heaps_HeapMem_Instance_init__E                                 
1001b9d9  ti_sysbios_heaps_HeapMem_Module_GateProxy_Handle__label__S                
1001b9d9  ti_sysbios_heaps_HeapMem_Module_GateProxy_Handle__label__S__mangled__     
1001b88d  ti_sysbios_heaps_HeapMem_Module_GateProxy_Object__delete__S               
1001bfb5  ti_sysbios_heaps_HeapMem_Module_GateProxy_Params__init__S                 
1001bfb5  ti_sysbios_heaps_HeapMem_Module_GateProxy_Params__init__S__mangled__      
1001c0c9  ti_sysbios_heaps_HeapMem_Module_GateProxy_enter__E                        
1001c0cd  ti_sysbios_heaps_HeapMem_Module_GateProxy_leave__E                        
1001c0bd  ti_sysbios_heaps_HeapMem_Module_GateProxy_query__E                        
1001c0bd  ti_sysbios_heaps_HeapMem_Module_GateProxy_query__E__mangled__             
00001000  ti_sysbios_heaps_HeapMem_Module__FXNS__C                                  
0000122c  ti_sysbios_heaps_HeapMem_Module__gateObj__C                               
0000128a  ti_sysbios_heaps_HeapMem_Module__id__C                                    
20002124  ti_sysbios_heaps_HeapMem_Module__root__V                                  
000010f0  ti_sysbios_heaps_HeapMem_Object__DESC__C                                  
1001ca6c  ti_sysbios_heaps_HeapMem_Object__PARAMS__C                                
00001230  ti_sysbios_heaps_HeapMem_Object__count__C                                 
1001b599  ti_sysbios_heaps_HeapMem_Object__create__S                                
1001ba59  ti_sysbios_heaps_HeapMem_Object__delete__S                                
1001b5c5  ti_sysbios_heaps_HeapMem_Object__get__S                                   
00001234  ti_sysbios_heaps_HeapMem_Object__table__C                                 
200020c8  ti_sysbios_heaps_HeapMem_Object__table__V                                 
1001a615  ti_sysbios_heaps_HeapMem_allocUnprotected__E                              
1001ab15  ti_sysbios_heaps_HeapMem_alloc__E                                         
1001ab6d  ti_sysbios_heaps_HeapMem_freeUnprotected__E                               
1001b3fd  ti_sysbios_heaps_HeapMem_free__E                                          
1001aefd  ti_sysbios_heaps_HeapMem_getStats__E                                      
00001e75  ti_sysbios_heaps_HeapMem_initPrimary__I                                   
1001b235  ti_sysbios_heaps_HeapMem_init__I                                          
1001c06d  ti_sysbios_heaps_HeapMem_isBlocking__E                                    
00003128  ti_sysbios_heaps_HeapMem_primaryHeapBaseAddr__C                           
0000312c  ti_sysbios_heaps_HeapMem_primaryHeapEndAddr__C                            
00001238  ti_sysbios_heaps_HeapMem_reqAlign__C                                      
1001bf41  ti_sysbios_heaps_HeapMem_restore__E                                       
1001be09  ti_sysbios_knl_Clock_Instance_finalize__E                                 
1001b1c5  ti_sysbios_knl_Clock_Instance_init__E                                     
1001cb6c  ti_sysbios_knl_Clock_Module_State_clockQ__O                               
2000212c  ti_sysbios_knl_Clock_Module__root__V                                      
20000178  ti_sysbios_knl_Clock_Module__state__V                                     
1001ba79  ti_sysbios_knl_Clock_Module_startup__E                                    
00001110  ti_sysbios_knl_Clock_Object__DESC__C                                      
1001ca90  ti_sysbios_knl_Clock_Object__PARAMS__C                                    
1001b8b1  ti_sysbios_knl_Clock_Object__delete__S                                    
1001ba99  ti_sysbios_knl_Clock_Object__destruct__S                                  
20002050  ti_sysbios_knl_Clock_Object__table__V                                     
1001bfc1  ti_sysbios_knl_Clock_Params__init__S                                      
1001b8f9  ti_sysbios_knl_Clock_TimerProxy_Module__startupDone__S                    
1001b8f9  ti_sysbios_knl_Clock_TimerProxy_Module__startupDone__S__mangled__         
1001bee1  ti_sysbios_knl_Clock_TimerProxy_getCurrentTick__E                         
1001c0d1  ti_sysbios_knl_Clock_TimerProxy_getExpiredTicks__E                        
1001bef1  ti_sysbios_knl_Clock_TimerProxy_getMaxTicks__E                            
1001c0d5  ti_sysbios_knl_Clock_TimerProxy_getPeriod__E                              
1001bf01  ti_sysbios_knl_Clock_TimerProxy_setNextTick__E                            
1001b4e9  ti_sysbios_knl_Clock_TimerProxy_startup__E                                
1001b4e9  ti_sysbios_knl_Clock_TimerProxy_startup__E__mangled__                     
1001b7a5  ti_sysbios_knl_Clock_addI__E                                              
1001b269  ti_sysbios_knl_Clock_construct                                            
1001b1fd  ti_sysbios_knl_Clock_create                                               
1001c0d9  ti_sysbios_knl_Clock_delete                                               
1001c0dd  ti_sysbios_knl_Clock_destruct                                             
00002cd9  ti_sysbios_knl_Clock_doTick__I                                            
000028e5  ti_sysbios_knl_Clock_getTicksUntilInterrupt__E                            
1001b29d  ti_sysbios_knl_Clock_getTicks__E                                          
1001bfcd  ti_sysbios_knl_Clock_getTimerHandle__E                                    
1001b843  ti_sysbios_knl_Clock_logTick__E                                           
1001c0e1  ti_sysbios_knl_Clock_removeI__E                                           
1001bca9  ti_sysbios_knl_Clock_scheduleNextTick__E                                  
1001c0e5  ti_sysbios_knl_Clock_setTimeout__E                                        
1001a1f1  ti_sysbios_knl_Clock_startI__E                                            
1001be1f  ti_sysbios_knl_Clock_start__E                                             
1001bab9  ti_sysbios_knl_Clock_stop__E                                              
0000128e  ti_sysbios_knl_Clock_tickMode__C                                          
00003130  ti_sysbios_knl_Clock_tickPeriod__C                                        
0000123c  ti_sysbios_knl_Clock_triggerClock__C                                      
1001bdbf  ti_sysbios_knl_Clock_triggerFunc__I                                       
1001a2f1  ti_sysbios_knl_Clock_walkQueueDynamic__E                                  
000017cd  ti_sysbios_knl_Clock_workFuncDynamic__E                                   
1001a369  ti_sysbios_knl_Clock_workFunc__E                                          
1001cb70  ti_sysbios_knl_Event_Instance_State_pendQ__O                              
1001be49  ti_sysbios_knl_Event_Instance_init__E                                     
20002134  ti_sysbios_knl_Event_Module__root__V                                      
00001130  ti_sysbios_knl_Event_Object__DESC__C                                      
1001cb08  ti_sysbios_knl_Event_Object__PARAMS__C                                    
1001bad9  ti_sysbios_knl_Event_Object__delete__S                                    
1001bcc5  ti_sysbios_knl_Event_Object__destruct__S                                  
1001bfd9  ti_sysbios_knl_Event_Params__init__S                                      
1001baf9  ti_sysbios_knl_Event_checkEvents__I                                       
1001b5f1  ti_sysbios_knl_Event_construct                                            
1001b42d  ti_sysbios_knl_Event_create                                               
1001c0e9  ti_sysbios_knl_Event_delete                                               
1001c0ed  ti_sysbios_knl_Event_destruct                                             
1001b61d  ti_sysbios_knl_Event_pendTimeout__I                                       
10019bf9  ti_sysbios_knl_Event_pend__E                                              
1001a455  ti_sysbios_knl_Event_post__E                                              
1001be6f  ti_sysbios_knl_Event_sync__E                                              
00003134  ti_sysbios_knl_Idle_funcList__A                                           
000011f0  ti_sysbios_knl_Idle_funcList__C                                           
1001c053  ti_sysbios_knl_Idle_loop__E                                               
1001bb19  ti_sysbios_knl_Idle_run__E                                                
1001cb74  ti_sysbios_knl_Mailbox_Instance_State_dataQue__O                          
1001cb78  ti_sysbios_knl_Mailbox_Instance_State_dataSem__O                          
1001cb7c  ti_sysbios_knl_Mailbox_Instance_State_freeQue__O                          
1001cb80  ti_sysbios_knl_Mailbox_Instance_State_freeSem__O                          
1001a4c5  ti_sysbios_knl_Mailbox_Instance_finalize__E                               
10019dad  ti_sysbios_knl_Mailbox_Instance_init__E                                   
2000213c  ti_sysbios_knl_Mailbox_Module__root__V                                    
1001afcd  ti_sysbios_knl_Mailbox_Module_startup__E                                  
00001150  ti_sysbios_knl_Mailbox_Object__DESC__C                                    
1001c9b4  ti_sysbios_knl_Mailbox_Object__PARAMS__C                                  
00001240  ti_sysbios_knl_Mailbox_Object__count__C                                   
1001bb39  ti_sysbios_knl_Mailbox_Object__delete__S                                  
1001bce1  ti_sysbios_knl_Mailbox_Object__destruct__S                                
1001b649  ti_sysbios_knl_Mailbox_Object__get__S                                     
00001244  ti_sysbios_knl_Mailbox_Object__table__C                                   
1001bfe5  ti_sysbios_knl_Mailbox_Params__init__S                                    
1001abc5  ti_sysbios_knl_Mailbox_construct                                          
1001a945  ti_sysbios_knl_Mailbox_create                                             
1001c0f1  ti_sysbios_knl_Mailbox_delete                                             
1001c0f5  ti_sysbios_knl_Mailbox_destruct                                           
00001248  ti_sysbios_knl_Mailbox_maxTypeAlign__C                                    
1001a535  ti_sysbios_knl_Mailbox_pend__E                                            
1001b675  ti_sysbios_knl_Mailbox_postInit__I                                        
1001a0ed  ti_sysbios_knl_Mailbox_post__E                                            
1001c073  ti_sysbios_knl_Queue_Instance_init__E                                     
20002144  ti_sysbios_knl_Queue_Module__root__V                                      
00001170  ti_sysbios_knl_Queue_Object__DESC__C                                      
1001cb20  ti_sysbios_knl_Queue_Object__PARAMS__C                                    
0000124c  ti_sysbios_knl_Queue_Object__count__C                                     
1001bb59  ti_sysbios_knl_Queue_Object__delete__S                                    
1001bcfd  ti_sysbios_knl_Queue_Object__destruct__S                                  
1001bb79  ti_sysbios_knl_Queue_Object__get__S                                       
00001250  ti_sysbios_knl_Queue_Object__table__C                                     
1001b6a1  ti_sysbios_knl_Queue_construct                                            
1001b6cd  ti_sysbios_knl_Queue_create                                               
1001c0f9  ti_sysbios_knl_Queue_delete                                               
1001bff1  ti_sysbios_knl_Queue_dequeue__E                                           
1001c0fd  ti_sysbios_knl_Queue_destruct                                             
1001c079  ti_sysbios_knl_Queue_elemClear__E                                         
1001bf4f  ti_sysbios_knl_Queue_empty__E                                             
1001bffd  ti_sysbios_knl_Queue_enqueue__E                                           
1001bd19  ti_sysbios_knl_Queue_get__E                                               
1001c101  ti_sysbios_knl_Queue_head__E                                              
1001c105  ti_sysbios_knl_Queue_next__E                                              
1001bd35  ti_sysbios_knl_Queue_put__E                                               
1001bf5d  ti_sysbios_knl_Queue_remove__E                                            
1001cb84  ti_sysbios_knl_Semaphore_Instance_State_pendQ__O                          
1001b7cd  ti_sysbios_knl_Semaphore_Instance_finalize__E                             
1001a685  ti_sysbios_knl_Semaphore_Instance_init__E                                 
2000214c  ti_sysbios_knl_Semaphore_Module__root__V                                  
00001190  ti_sysbios_knl_Semaphore_Object__DESC__C                                  
1001cab4  ti_sysbios_knl_Semaphore_Object__PARAMS__C                                
1001b8d5  ti_sysbios_knl_Semaphore_Object__delete__S                                
1001bb99  ti_sysbios_knl_Semaphore_Object__destruct__S                              
1001c009  ti_sysbios_knl_Semaphore_Params__init__S                                  
1001b45d  ti_sysbios_knl_Semaphore_construct                                        
1001b2d1  ti_sysbios_knl_Semaphore_create                                           
1001c109  ti_sysbios_knl_Semaphore_delete                                           
1001c10d  ti_sysbios_knl_Semaphore_destruct                                         
00001254  ti_sysbios_knl_Semaphore_eventPost__C                                     
00001258  ti_sysbios_knl_Semaphore_eventSync__C                                     
1001b6f9  ti_sysbios_knl_Semaphore_pendTimeout__I                                   
10019b05  ti_sysbios_knl_Semaphore_pend__E                                          
1001a3e1  ti_sysbios_knl_Semaphore_post__E                                          
1001bf77  ti_sysbios_knl_Swi_Instance_finalize__E                                   
1001a9a5  ti_sysbios_knl_Swi_Instance_init__E                                       
20001ff0  ti_sysbios_knl_Swi_Module_State_0_readyQ__A                               
20002154  ti_sysbios_knl_Swi_Module__root__V                                        
200001c8  ti_sysbios_knl_Swi_Module__state__V                                       
1001c07f  ti_sysbios_knl_Swi_Module_startup__E                                      
000011b0  ti_sysbios_knl_Swi_Object__DESC__C                                        
1001ca44  ti_sysbios_knl_Swi_Object__PARAMS__C                                      
0000125c  ti_sysbios_knl_Swi_Object__count__C                                       
1001bbb9  ti_sysbios_knl_Swi_Object__delete__S                                      
1001bd51  ti_sysbios_knl_Swi_Object__destruct__S                                    
1001b725  ti_sysbios_knl_Swi_Object__get__S                                         
00001260  ti_sysbios_knl_Swi_Object__table__C                                       
20002020  ti_sysbios_knl_Swi_Object__table__V                                       
1001c015  ti_sysbios_knl_Swi_Params__init__S                                        
1001ad79  ti_sysbios_knl_Swi_construct                                              
00002b8d  ti_sysbios_knl_Swi_construct2__E                                          
1001ac1d  ti_sysbios_knl_Swi_create                                                 
1001c111  ti_sysbios_knl_Swi_delete                                                 
1001c115  ti_sysbios_knl_Swi_destruct                                               
1001bf11  ti_sysbios_knl_Swi_disable__E                                             
1001bf21  ti_sysbios_knl_Swi_enabled__E                                             
00002de5  ti_sysbios_knl_Swi_getTrigger__E                                          
00001264  ti_sysbios_knl_Swi_numPriorities__C                                       
00002c3d  ti_sysbios_knl_Swi_or__E                                                  
1001c119  ti_sysbios_knl_Swi_postInit__I                                            
1001b011  ti_sysbios_knl_Swi_post__E                                                
1001a6ed  ti_sysbios_knl_Swi_restoreHwi__E                                          
1001b305  ti_sysbios_knl_Swi_restore__E                                             
1001adc9  ti_sysbios_knl_Swi_runLoop__I                                             
1001ac75  ti_sysbios_knl_Swi_run__I                                                 
1001ad25  ti_sysbios_knl_Swi_schedule__I                                            
1001c085  ti_sysbios_knl_Swi_startup__E                                             
20001608  ti_sysbios_knl_Task_Instance_State_0_stack__A                             
1001a059  ti_sysbios_knl_Task_Instance_finalize__E                                  
10019ce1  ti_sysbios_knl_Task_Instance_init__E                                      
20002178  ti_sysbios_knl_Task_Module_State_0_idleTask__A                            
20002070  ti_sysbios_knl_Task_Module_State_0_readyQ__A                              
1001cb88  ti_sysbios_knl_Task_Module_State_inactiveQ__O                             
2000215c  ti_sysbios_knl_Task_Module__root__V                                       
20000100  ti_sysbios_knl_Task_Module__state__V                                      
1001aa05  ti_sysbios_knl_Task_Module_startup__E                                     
000011d0  ti_sysbios_knl_Task_Object__DESC__C                                       
1001c978  ti_sysbios_knl_Task_Object__PARAMS__C                                     
00001268  ti_sysbios_knl_Task_Object__count__C                                      
1001bbd9  ti_sysbios_knl_Task_Object__delete__S                                     
1001bd6d  ti_sysbios_knl_Task_Object__destruct__S                                   
1001bbf9  ti_sysbios_knl_Task_Object__get__S                                        
0000126c  ti_sysbios_knl_Task_Object__table__C                                      
20001ef4  ti_sysbios_knl_Task_Object__table__V                                      
1001c021  ti_sysbios_knl_Task_Params__init__S                                       
1001c0ad  ti_sysbios_knl_Task_SupportProxy_Module__startupDone__S                   
1001c0ad  ti_sysbios_knl_Task_SupportProxy_Module__startupDone__S__mangled__        
1001bf9d  ti_sysbios_knl_Task_SupportProxy_getStackAlignment__E                     
1001bf9d  ti_sysbios_knl_Task_SupportProxy_getStackAlignment__E__mangled__          
1001b155  ti_sysbios_knl_Task_SupportProxy_start__E                                 
1001b155  ti_sysbios_knl_Task_SupportProxy_start__E__mangled__                      
1001c969  ti_sysbios_knl_Task_SupportProxy_swap__E                                  
1001c969  ti_sysbios_knl_Task_SupportProxy_swap__E__mangled__                       
00001270  ti_sysbios_knl_Task_allBlockedFunc__C                                     
1001b055  ti_sysbios_knl_Task_allBlockedFunction__I                                 
1001b339  ti_sysbios_knl_Task_blockI__E                                             
1001ae19  ti_sysbios_knl_Task_construct                                             
1001accd  ti_sysbios_knl_Task_create                                                
00001274  ti_sysbios_knl_Task_defaultStackHeap__C                                   
00001278  ti_sysbios_knl_Task_defaultStackSize__C                                   
1001c11d  ti_sysbios_knl_Task_delete                                                
1001c121  ti_sysbios_knl_Task_destruct                                              
1001bf31  ti_sysbios_knl_Task_disable__E                                            
1001c08b  ti_sysbios_knl_Task_enable__E                                             
1001bd89  ti_sysbios_knl_Task_enter__I                                              
1001b119  ti_sysbios_knl_Task_exit__E                                               
0000128c  ti_sysbios_knl_Task_initStackFlag__C                                      
0000127c  ti_sysbios_knl_Task_numConstructedTasks__C                                
1001a271  ti_sysbios_knl_Task_postInit__I                                           
1001b48d  ti_sysbios_knl_Task_processVitalTaskFlag__I                               
1001bc19  ti_sysbios_knl_Task_restoreHwi__E                                         
1001b7f5  ti_sysbios_knl_Task_restore__E                                            
1001ae69  ti_sysbios_knl_Task_schedule__I                                           
1001c02d  ti_sysbios_knl_Task_self__E                                               
1001bda5  ti_sysbios_knl_Task_sleepTimeout__I                                       
1001a5a5  ti_sysbios_knl_Task_sleep__E                                              
1001aa61  ti_sysbios_knl_Task_startCore__E                                          
1001c125  ti_sysbios_knl_Task_startup__E                                            
1001c971  ti_sysbios_knl_Task_swapReturn                                            
1001b751  ti_sysbios_knl_Task_unblockI__E                                           
1001bdf1  ti_sysbios_knl_Task_unblock__E                                            
1001b0d9  ti_sysbios_knl_Task_yield__E                                              
00001304  ti_sysbios_rom_ROM_ti_sysbios_family_arm_cc26xx_Timer_getCount64__E       
00001308  ti_sysbios_rom_ROM_ti_sysbios_family_arm_cc26xx_Timer_getCurrentTick__E   
0000130c  ti_sysbios_rom_ROM_ti_sysbios_family_arm_cc26xx_Timer_getMaxTicks__E      
00001310  ti_sysbios_rom_ROM_ti_sysbios_family_arm_cc26xx_Timer_initDevice__I       
00001314  ti_sysbios_rom_ROM_ti_sysbios_family_arm_cc26xx_Timer_setNextTick__E      
00001318  ti_sysbios_rom_ROM_ti_sysbios_family_arm_cc26xx_Timer_setThreshold__I     
0000131c  ti_sysbios_rom_ROM_ti_sysbios_family_arm_cc26xx_Timer_start__E            
00001320  ti_sysbios_rom_ROM_ti_sysbios_family_arm_cc26xx_TimestampProvider_get32__E
00001324  ti_sysbios_rom_ROM_xdc_runtime_Startup_getState__I                        
00001328  ti_sysbios_rom_ROM_xdc_runtime_System_SupportProxy_abort__E               
0000132c  ti_sysbios_rom_ROM_xdc_runtime_System_SupportProxy_exit__E                
10019b00  ti_sysbios_rom_cortexm_cc26xx_r2_CC26xx_REVISION__C                       
00002d9b  ti_sysbios_rom_cortexm_cc26xx_r2_CC26xx_badRomRevision__E                 
00002c55  ti_sysbios_rom_cortexm_cc26xx_r2_CC26xx_checkRevision__E                  
000012a0  xdc_runtime_Assert_E_assertFailed__C                                      
1001c465  xdc_runtime_Assert_raise__I                                               
1001c5b9  xdc_runtime_Core_assignLabel__I                                           
1001c4ad  xdc_runtime_Core_assignParams__I                                          
1001c4f5  xdc_runtime_Core_constructObject__I                                       
1001c2c9  xdc_runtime_Core_createObject__I                                          
1001c3b5  xdc_runtime_Core_deleteObject__I                                          
1001c6a5  xdc_runtime_Core_destructObject__I                                        
000012a4  xdc_runtime_Error_E_memory__C                                             
20002090  xdc_runtime_Error_IgnoreBlock                                             
20000204  xdc_runtime_Error_Module__state__V                                        
1001c6bd  xdc_runtime_Error_check__E                                                
000012f8  xdc_runtime_Error_maxDepth__C                                             
000012a8  xdc_runtime_Error_policyFxn__C                                            
1001c413  xdc_runtime_Error_policySpin__E                                           
00001300  xdc_runtime_Error_policy__C                                               
000012ac  xdc_runtime_Error_raiseHook__C                                            
1001c66d  xdc_runtime_Error_raiseX__E                                               
1001c795  xdc_runtime_Gate_enterSystem__E                                           
1001c789  xdc_runtime_Gate_leaveSystem__E                                           
000012b0  xdc_runtime_IGateProvider_Interface__BASE__C                              
000012b4  xdc_runtime_IHeap_Interface__BASE__C                                      
000012b8  xdc_runtime_IModule_Interface__BASE__C                                    
1001b999  xdc_runtime_Main_Module_GateProxy_Handle__label__S                        
1001c0b1  xdc_runtime_Main_Module_GateProxy_query__E                                
1001ba39  xdc_runtime_Memory_HeapProxy_Handle__label__S                             
1001ba39  xdc_runtime_Memory_HeapProxy_Handle__label__S__mangled__                  
1001ba59  xdc_runtime_Memory_HeapProxy_Object__delete__S                            
1001c775  xdc_runtime_Memory_HeapProxy_alloc__E                                     
1001c77f  xdc_runtime_Memory_HeapProxy_free__E                                      
000012fa  xdc_runtime_Memory_Module__id__C                                          
20000200  xdc_runtime_Memory_Module__state__V                                       
1001c349  xdc_runtime_Memory_alloc__E                                               
1001c751  xdc_runtime_Memory_calloc__E                                              
000012bc  xdc_runtime_Memory_defaultHeapInstance__C                                 
1001c705  xdc_runtime_Memory_free__E                                                
1001c75d  xdc_runtime_Memory_getMaxDefaultTypeAlign__E                              
1001c689  xdc_runtime_Memory_valloc__E                                              
200001f0  xdc_runtime_Startup_Module__state__V                                      
00000001  xdc_runtime_Startup__EXECFXN__C                                           
00000001  xdc_runtime_Startup__RESETFXN__C                                          
000012c0  xdc_runtime_Startup_execImpl__C                                           
1001c415  xdc_runtime_Startup_exec__E                                               
00002cff  xdc_runtime_Startup_exec__I                                               
000030fc  xdc_runtime_Startup_firstFxns__A                                          
00001290  xdc_runtime_Startup_firstFxns__C                                          
00001f95  xdc_runtime_Startup_getState__I                                           
00001298  xdc_runtime_Startup_lastFxns__C                                           
000012c4  xdc_runtime_Startup_maxPasses__C                                          
00002df1  xdc_runtime_Startup_reset__I                                              
1001c769  xdc_runtime_Startup_rtsDone__E                                            
000030e8  xdc_runtime_Startup_sfxnRts__A                                            
000012c8  xdc_runtime_Startup_sfxnRts__C                                            
00003080  xdc_runtime_Startup_sfxnTab__A                                            
000012cc  xdc_runtime_Startup_sfxnTab__C                                            
000012d0  xdc_runtime_Startup_startModsFxn__C                                       
1001c129  xdc_runtime_Startup_startMods__I                                          
000012d4  xdc_runtime_SysCallback_abortFxn__C                                       
1001c715  xdc_runtime_SysCallback_abort__E                                          
00002e3d  xdc_runtime_SysCallback_defaultAbort                                      
00002e3f  xdc_runtime_SysCallback_defaultExit                                       
000012d8  xdc_runtime_SysCallback_exitFxn__C                                        
1001c725  xdc_runtime_SysCallback_exit__E                                           
20001808  xdc_runtime_SysMin_Module_State_0_outbuf__A                               
200020f0  xdc_runtime_SysMin_Module__state__V                                       
00002add  xdc_runtime_SysMin_Module_startup__E                                      
00002739  xdc_runtime_SysMin_abort__E                                               
00003138  xdc_runtime_SysMin_bufSize__C                                             
00002ba9  xdc_runtime_SysMin_exit__E                                                
00003140  xdc_runtime_SysMin_flushAtExit__C                                         
000022f1  xdc_runtime_SysMin_flush__E                                               
0000313c  xdc_runtime_SysMin_outputFunc__C                                          
00002a3b  xdc_runtime_SysMin_output__I                                              
0000276d  xdc_runtime_SysMin_putch__E                                               
1001b999  xdc_runtime_System_Module_GateProxy_Handle__label__S                      
1001b999  xdc_runtime_System_Module_GateProxy_Handle__label__S__mangled__           
1001b9b9  xdc_runtime_System_Module_GateProxy_Object__delete__S                     
1001c799  xdc_runtime_System_Module_GateProxy_enter__E                              
1001c79d  xdc_runtime_System_Module_GateProxy_leave__E                              
1001c0b1  xdc_runtime_System_Module_GateProxy_query__E                              
1001c0b1  xdc_runtime_System_Module_GateProxy_query__E__mangled__                   
20002164  xdc_runtime_System_Module_State_0_atexitHandlers__A                       
200001f8  xdc_runtime_System_Module__state__V                                       
1001c78f  xdc_runtime_System_Module_startup__E                                      
00002739  xdc_runtime_System_SupportProxy_abort__E                                  
00002ba9  xdc_runtime_System_SupportProxy_exit__E                                   
000022f1  xdc_runtime_System_SupportProxy_flush__E                                  
0000276d  xdc_runtime_System_SupportProxy_putch__E                                  
000012dc  xdc_runtime_System_abortFxn__C                                            
1001c7a1  xdc_runtime_System_abortSpin__E                                           
1001c64d  xdc_runtime_System_abort__E                                               
1001c581  xdc_runtime_System_atexit__E                                              
000012e0  xdc_runtime_System_exitFxn__C                                             
1001c7a3  xdc_runtime_System_exitSpin__E                                            
1001c6d5  xdc_runtime_System_exit__E                                                
000022f1  xdc_runtime_System_flush__E                                               
000012e4  xdc_runtime_System_maxAtexitHandlers__C                                   
1001c5ed  xdc_runtime_System_processAtExit__E                                       
000012fc  xdc_runtime_Text_charCnt__C                                               
00003142  xdc_runtime_Text_charTab__A                                               
000012e8  xdc_runtime_Text_charTab__C                                               
1001c621  xdc_runtime_Text_cordText__E                                              
000012fe  xdc_runtime_Text_isLoaded__C                                              
000012ec  xdc_runtime_Text_nameEmpty__C                                             
000012f0  xdc_runtime_Text_nameStatic__C                                            
000012f4  xdc_runtime_Text_nameUnknown__C                                           
1001c6ed  xdc_runtime_Text_ropeText__E                                              
1001c735  xdc_runtime_Timestamp_SupportProxy_get32__E                               
00002d5d  xdc_runtime_Timestamp_SupportProxy_get32__E__mangled__                    
1001b77d  xdc_runtime_Timestamp_SupportProxy_get64__E                               
1001b77d  xdc_runtime_Timestamp_SupportProxy_get64__E__mangled__                    
1001bf6b  xdc_runtime_Timestamp_SupportProxy_getFreq__E                             
1001bf6b  xdc_runtime_Timestamp_SupportProxy_getFreq__E__mangled__                  
1001c735  xdc_runtime_Timestamp_get32__E                                            
1001c735  xdc_runtime_Timestamp_get32__E                                            
1001b77d  xdc_runtime_Timestamp_get64__E                                            
1001b77d  xdc_runtime_Timestamp_get64__E                                            
1001bf6b  xdc_runtime_Timestamp_getFreq__E                                          
1001bf6b  xdc_runtime_Timestamp_getFreq__E                                          


GLOBAL SYMBOLS: SORTED BY Symbol Address 

address   name                                                                      
-------   ----                                                                      
00000000  __ASM__                                                                   
00000000  ti_sysbios_family_arm_m3_Hwi_resetVectors                                 
00000001  xdc_runtime_Startup__EXECFXN__C                                           
00000001  xdc_runtime_Startup__RESETFXN__C                                          
0000003d  PowerCC26XX_auxISR                                                        
00000084  __ISA__                                                                   
00000096  __PLAT__                                                                  
000000bd  __TARG__                                                                  
000000e2  __TRDR__                                                                  
00000351  Power_sleep                                                               
00000400  __STACK_SIZE                                                              
00000585  NOROM_SysCtrlSetRechargeBeforePowerDown                                   
00000791  PIN_init                                                                  
00000949  PowerCC26XX_doCalibrate                                                   
00000ad9  Power_init                                                                
00000c05  GPIO_setConfig                                                            
00000d1d  PowerCC26XX_standbyPolicy                                                 
00000ef9  GPIO_init                                                                 
00000fb5  CC2640R2_LAUNCHXL_wakeUpExtFlash                                          
00001000  HEAPSIZE                                                                  
00001000  ti_sysbios_heaps_HeapMem_Module__FXNS__C                                  
00001028  ti_sysbios_gates_GateHwi_Module__FXNS__C                                  
0000104c  ti_sysbios_gates_GateMutex_Module__FXNS__C                                
00001070  ti_sysbios_family_arm_m3_Hwi_Object__DESC__C                              
00001090  ti_sysbios_gates_GateHwi_Object__DESC__C                                  
000010b0  ti_sysbios_gates_GateMutex_Object__DESC__C                                
000010d0  ti_sysbios_hal_Hwi_Object__DESC__C                                        
000010f0  ti_sysbios_heaps_HeapMem_Object__DESC__C                                  
00001110  ti_sysbios_knl_Clock_Object__DESC__C                                      
00001130  ti_sysbios_knl_Event_Object__DESC__C                                      
00001150  ti_sysbios_knl_Mailbox_Object__DESC__C                                    
00001170  ti_sysbios_knl_Queue_Object__DESC__C                                      
00001190  ti_sysbios_knl_Semaphore_Object__DESC__C                                  
000011b0  ti_sysbios_knl_Swi_Object__DESC__C                                        
000011d0  ti_sysbios_knl_Task_Object__DESC__C                                       
000011f0  ti_sysbios_knl_Idle_funcList__C                                           
000011f8  ti_sysbios_family_arm_cc26xx_Timer_startupNeeded__C                       
000011fc  ti_sysbios_family_arm_m3_Hwi_E_alreadyDefined__C                          
00001200  ti_sysbios_family_arm_m3_Hwi_E_hwiLimitExceeded__C                        
00001204  ti_sysbios_family_arm_m3_Hwi_NUM_INTERRUPTS__C                            
00001208  ti_sysbios_family_arm_m3_Hwi_Object__count__C                             
0000120c  ti_sysbios_family_arm_m3_Hwi_Object__table__C                             
00001210  ti_sysbios_family_arm_m3_Hwi_ccr__C                                       
00001214  ti_sysbios_family_arm_m3_Hwi_excHandlerFunc__C                            
00001218  ti_sysbios_family_arm_m3_Hwi_nullIsrFunc__C                               
0000121c  ti_sysbios_family_arm_m3_Hwi_numSparseInterrupts__C                       
00001220  ti_sysbios_family_arm_m3_Hwi_priGroup__C                                  
00001224  ti_sysbios_family_arm_m3_TaskSupport_stackAlignment__C                    
00001228  ti_sysbios_heaps_HeapMem_E_memory__C                                      
0000122c  ti_sysbios_heaps_HeapMem_Module__gateObj__C                               
00001230  ti_sysbios_heaps_HeapMem_Object__count__C                                 
00001234  ti_sysbios_heaps_HeapMem_Object__table__C                                 
00001238  ti_sysbios_heaps_HeapMem_reqAlign__C                                      
0000123c  ti_sysbios_knl_Clock_triggerClock__C                                      
00001240  ti_sysbios_knl_Mailbox_Object__count__C                                   
00001244  ti_sysbios_knl_Mailbox_Object__table__C                                   
00001248  ti_sysbios_knl_Mailbox_maxTypeAlign__C                                    
0000124c  ti_sysbios_knl_Queue_Object__count__C                                     
00001250  ti_sysbios_knl_Queue_Object__table__C                                     
00001254  ti_sysbios_knl_Semaphore_eventPost__C                                     
00001258  ti_sysbios_knl_Semaphore_eventSync__C                                     
0000125c  ti_sysbios_knl_Swi_Object__count__C                                       
00001260  ti_sysbios_knl_Swi_Object__table__C                                       
00001264  ti_sysbios_knl_Swi_numPriorities__C                                       
00001268  ti_sysbios_knl_Task_Object__count__C                                      
0000126c  ti_sysbios_knl_Task_Object__table__C                                      
00001270  ti_sysbios_knl_Task_allBlockedFunc__C                                     
00001274  ti_sysbios_knl_Task_defaultStackHeap__C                                   
00001278  ti_sysbios_knl_Task_defaultStackSize__C                                   
0000127c  ti_sysbios_knl_Task_numConstructedTasks__C                                
00001280  ti_sysbios_family_arm_cc26xx_Timer_Module__id__C                          
00001282  ti_sysbios_family_arm_cc26xx_TimestampProvider_useClockTimer__C           
00001284  ti_sysbios_family_arm_m3_Hwi_Module__id__C                                
00001286  ti_sysbios_gates_GateHwi_Module__id__C                                    
00001288  ti_sysbios_gates_GateMutex_Module__id__C                                  
0000128a  ti_sysbios_heaps_HeapMem_Module__id__C                                    
0000128c  ti_sysbios_knl_Task_initStackFlag__C                                      
0000128e  ti_sysbios_knl_Clock_tickMode__C                                          
00001290  xdc_runtime_Startup_firstFxns__C                                          
00001298  xdc_runtime_Startup_lastFxns__C                                           
000012a0  xdc_runtime_Assert_E_assertFailed__C                                      
000012a4  xdc_runtime_Error_E_memory__C                                             
000012a8  xdc_runtime_Error_policyFxn__C                                            
000012ac  xdc_runtime_Error_raiseHook__C                                            
000012b0  xdc_runtime_IGateProvider_Interface__BASE__C                              
000012b4  xdc_runtime_IHeap_Interface__BASE__C                                      
000012b8  xdc_runtime_IModule_Interface__BASE__C                                    
000012bc  xdc_runtime_Memory_defaultHeapInstance__C                                 
000012c0  xdc_runtime_Startup_execImpl__C                                           
000012c4  xdc_runtime_Startup_maxPasses__C                                          
000012c8  xdc_runtime_Startup_sfxnRts__C                                            
000012cc  xdc_runtime_Startup_sfxnTab__C                                            
000012d0  xdc_runtime_Startup_startModsFxn__C                                       
000012d4  xdc_runtime_SysCallback_abortFxn__C                                       
000012d8  xdc_runtime_SysCallback_exitFxn__C                                        
000012dc  xdc_runtime_System_abortFxn__C                                            
000012e0  xdc_runtime_System_exitFxn__C                                             
000012e4  xdc_runtime_System_maxAtexitHandlers__C                                   
000012e8  xdc_runtime_Text_charTab__C                                               
000012ec  xdc_runtime_Text_nameEmpty__C                                             
000012f0  xdc_runtime_Text_nameStatic__C                                            
000012f4  xdc_runtime_Text_nameUnknown__C                                           
000012f8  xdc_runtime_Error_maxDepth__C                                             
000012fa  xdc_runtime_Memory_Module__id__C                                          
000012fc  xdc_runtime_Text_charCnt__C                                               
000012fe  xdc_runtime_Text_isLoaded__C                                              
00001300  xdc_runtime_Error_policy__C                                               
00001304  ti_sysbios_rom_ROM_ti_sysbios_family_arm_cc26xx_Timer_getCount64__E       
00001308  ti_sysbios_rom_ROM_ti_sysbios_family_arm_cc26xx_Timer_getCurrentTick__E   
0000130c  ti_sysbios_rom_ROM_ti_sysbios_family_arm_cc26xx_Timer_getMaxTicks__E      
00001310  ti_sysbios_rom_ROM_ti_sysbios_family_arm_cc26xx_Timer_initDevice__I       
00001314  ti_sysbios_rom_ROM_ti_sysbios_family_arm_cc26xx_Timer_setNextTick__E      
00001318  ti_sysbios_rom_ROM_ti_sysbios_family_arm_cc26xx_Timer_setThreshold__I     
0000131c  ti_sysbios_rom_ROM_ti_sysbios_family_arm_cc26xx_Timer_start__E            
00001320  ti_sysbios_rom_ROM_ti_sysbios_family_arm_cc26xx_TimestampProvider_get32__E
00001324  ti_sysbios_rom_ROM_xdc_runtime_Startup_getState__I                        
00001328  ti_sysbios_rom_ROM_xdc_runtime_System_SupportProxy_abort__E               
0000132c  ti_sysbios_rom_ROM_xdc_runtime_System_SupportProxy_exit__E                
00001331  Power_releaseDependency                                                   
000013ed  Power_setDependency                                                       
000014a1  NOROM_SetupTrimDevice                                                     
000014a1  ti_sysbios_family_arm_cc26xx_Boot_trimDevice                              
000015f1  PIN_open                                                                  
00001691  __TI_auto_init                                                            
00001731  __aeabi_memcpy                                                            
00001731  __aeabi_memcpy4                                                           
00001731  __aeabi_memcpy8                                                           
00001731  memcpy                                                                    
000017cd  ti_sysbios_knl_Clock_workFuncDynamic__E                                   
00001865  __aeabi_uldivmod                                                          
000018fb  _nop                                                                      
000018fd  ti_sysbios_family_arm_cc26xx_Timer_start__E                               
00001a19  CC2640R2_LAUNCHXL_sendExtFlashByte                                        
00001a9d  __aeabi_memclr                                                            
00001a9d  __aeabi_memclr4                                                           
00001a9d  __aeabi_memclr8                                                           
00001a9f  __aeabi_memset                                                            
00001a9f  __aeabi_memset4                                                           
00001a9f  __aeabi_memset8                                                           
00001aa5  memset                                                                    
00001b17  adc_task_function                                                         
00001b19  NOROM_SysCtrlAdjustRechargeAfterPowerDown                                 
00001bf9  NOROM_OSCHF_AttemptToSwitchToXosc                                         
00001c65  PowerCC26XX_initiateCalibration                                           
00001d3d  NOROM_SysCtrl_DCDC_VoltageConditionalControl                              
00001da5  PIN_add                                                                   
00001e0d  __TI_decompress_lzss                                                      
00001e75  ti_sysbios_heaps_HeapMem_initPrimary__I                                   
00001ed9  PowerCC26XX_calibrate                                                     
00001f39  PowerCC26XX_RCOSC_clockFunc                                               
00001f95  xdc_runtime_Startup_getState__I                                           
00001ff1  HOSTwrite                                                                 
00002049  PIN_remove                                                                
000020f5  ClockP_construct                                                          
00002145  GPIO_enableInt                                                            
00002191  copy_in                                                                   
000021dd  ti_sysbios_family_arm_cc26xx_Timer_setThreshold__I                        
00002225  NOROM_OSCHF_SwitchToRcOscTurnOffXosc                                      
00002269  ResetISR                                                                  
00002269  _c_int00                                                                  
000022ad  main                                                                      
000022f1  xdc_runtime_SysMin_flush__E                                               
000022f1  xdc_runtime_System_SupportProxy_flush__E                                  
000022f1  xdc_runtime_System_flush__E                                               
00002335  CC2640R2_LAUNCHXL_shutDownExtFlash                                        
000023b5  HwiP_construct                                                            
000023f5  NOROM_OSC_HPOSCRelativeFrequencyOffsetGet                                 
00002431  SwiP_construct                                                            
000024a9  ti_sysbios_family_arm_m3_Hwi_construct2__E                                
000024e5  PIN_setConfig                                                             
0000251d  PIN_setInterrupt                                                          
00002555  PIN_setOutputValue                                                        
0000258d  __TI_writemsg                                                             
000025bb  C$$IO$$                                                                   
000025c5  ti_sysbios_family_arm_cc26xx_Timer_getCurrentTick__E                      
000025fd  ti_sysbios_family_arm_cc26xx_Timer_setNextTick__E                         
00002633  __aeabi_idiv0                                                             
00002633  __aeabi_ldiv0                                                             
00002635  GPIO_setCallback                                                          
00002669  Power_releaseConstraint                                                   
0000269d  __TI_readmsg                                                              
00002705  ti_sysbios_family_arm_cc26xx_Timer_initDevice__I                          
00002739  xdc_runtime_SysMin_abort__E                                               
00002739  xdc_runtime_System_SupportProxy_abort__E                                  
0000276d  xdc_runtime_SysMin_putch__E                                               
0000276d  xdc_runtime_System_SupportProxy_putch__E                                  
000027a1  GPIO_hwiIntFxn                                                            
000027d1  Power_setConstraint                                                       
00002801  ti_sysbios_BIOS_atExitFunc__I                                             
00002831  ti_sysbios_BIOS_startFunc__I                                              
00002861  NOROM_ChipInfo_GetChipFamily                                              
0000288d  SemaphoreP_constructBinary                                                
000028b9  SemaphoreP_createBinary                                                   
000028e5  ti_sysbios_knl_Clock_getTicksUntilInterrupt__E                            
00002911  NOROM_ChipInfo_GetChipType                                                
00002939  Power_registerNotify                                                      
00002961  SafeHapiVoid                                                              
00002989  NOROM_OSCHF_TurnOnXosc                                                    
000029ad  ti_sysbios_BIOS_registerRTSLock__I                                        
000029d1  ti_sysbios_BIOS_removeRTSLock__I                                          
000029f5  ti_sysbios_family_arm_cc26xx_Timer_getMaxTicks__E                         
00002a19  List_put                                                                  
00002a3b  xdc_runtime_SysMin_output__I                                              
00002a5d  PowerCC26XX_schedulerDisable                                              
00002a7d  PowerCC26XX_schedulerRestore                                              
00002a9d  ti_sysbios_BIOS_rtsLock__I                                                
00002abd  ti_sysbios_family_arm_cc26xx_Timer_dynamicStub__E                         
00002add  xdc_runtime_SysMin_Module_startup__E                                      
00002afd  PIN_close                                                                 
00002b1b  Power_getTransitionLatency                                                
00002b39  CC2640R2_LAUNCHXL_initGeneral                                             
00002b8d  ti_sysbios_knl_Swi_construct2__E                                          
00002ba9  xdc_runtime_SysMin_exit__E                                                
00002ba9  xdc_runtime_System_SupportProxy_exit__E                                   
00002bc5  NOROM_ChipInfo_GetPackageType                                             
00002bdd  Power_idleFunc                                                            
00002bf5  _args_main                                                                
00002c0d  __aeabi_lmul                                                              
00002c25  ti_sysbios_BIOS_rtsUnlock__I                                              
00002c3d  ti_sysbios_knl_Swi_or__E                                                  
00002c55  ti_sysbios_rom_cortexm_cc26xx_r2_CC26xx_checkRevision__E                  
00002c6d  ti_sysbios_BIOS_errorRaiseHook__I                                         
00002c83  ti_sysbios_BIOS_exitFunc__I                                               
00002caf  ti_sysbios_BIOS_nullFunc__I                                               
00002cc5  ti_sysbios_family_arm_cc26xx_Timer_getCount64__E                          
00002cd9  ti_sysbios_knl_Clock_doTick__I                                            
00002ced  SemaphoreP_pend                                                           
00002cff  xdc_runtime_Startup_exec__I                                               
00002d11  HwiP_Params_init                                                          
00002d21  PINCC26XX_getPinCount                                                     
00002d31  SwiP_Params_init                                                          
00002d41  NOROM_ThisLibraryIsFor_CC26x0R2_HaltIfViolated                            
00002d4f  __TI_decompress_none                                                      
00002d5d  ti_sysbios_family_arm_cc26xx_TimestampProvider_get32__E                   
00002d5d  xdc_runtime_Timestamp_SupportProxy_get32__E__mangled__                    
00002d6b  NOROM_CPUcpsid                                                            
00002d77  NOROM_CPUcpsie                                                            
00002d83  NOROM_OSC_HPOSCRelativeFrequencyOffsetToRFCoreFormatConvert               
00002d8f  PIN_registerIntCb                                                         
00002d9b  ti_sysbios_rom_cortexm_cc26xx_r2_CC26xx_badRomRevision__E                 
00002d9d  Power_getConstraintMask                                                   
00002da9  Power_getDependencyCount                                                  
00002db5  SemaphoreP_delete                                                         
00002dc1  _register_lock                                                            
00002dcd  _register_unlock                                                          
00002dd9  __TI_zero_init                                                            
00002de5  ti_sysbios_knl_Swi_getTrigger__E                                          
00002df1  xdc_runtime_Startup_reset__I                                              
00002dfd  ClockP_Params_init                                                        
00002e07  Board_initHook                                                            
00002e0f  NOROM_CPUdelay                                                            
00002e19  ClockP_setTimeout                                                         
00002e1d  ClockP_start                                                              
00002e21  ClockP_stop                                                               
00002e25  HwiP_disable                                                              
00002e29  SemaphoreP_post                                                           
00002e2d  SwiP_disable                                                              
00002e31  SwiP_getTrigger                                                           
00002e35  SwiP_or                                                                   
00002e3d  xdc_runtime_SysCallback_defaultAbort                                      
00002e3f  xdc_runtime_SysCallback_defaultExit                                       
00002f80  resourceDB                                                                
00003014  inPinTypes                                                                
00003020  outPinStrengths                                                           
0000302c  outPinTypes                                                               
00003054  BoardGpioInitTable                                                        
00003080  xdc_runtime_Startup_sfxnTab__A                                            
000030a8  PowerCC26XX_config                                                        
000030d4  GPIOCC26XX_config                                                         
000030e8  xdc_runtime_Startup_sfxnRts__A                                            
000030fc  xdc_runtime_Startup_firstFxns__A                                          
00003110  PINCC26XX_hwAttrs                                                         
00003118  ti_sysbios_family_arm_cc26xx_Timer_funcHookCH1__C                         
0000311c  ti_sysbios_family_arm_cc26xx_Timer_funcHookCH2__C                         
00003120  ti_sysbios_family_arm_m3_Hwi_swiDisable__C                                
00003124  ti_sysbios_family_arm_m3_Hwi_swiRestoreHwi__C                             
00003128  ti_sysbios_heaps_HeapMem_primaryHeapBaseAddr__C                           
0000312c  ti_sysbios_heaps_HeapMem_primaryHeapEndAddr__C                            
00003130  ti_sysbios_knl_Clock_tickPeriod__C                                        
00003134  ti_sysbios_knl_Idle_funcList__A                                           
00003138  xdc_runtime_SysMin_bufSize__C                                             
0000313c  xdc_runtime_SysMin_outputFunc__C                                          
00003140  xdc_runtime_SysMin_flushAtExit__C                                         
00003142  xdc_runtime_Text_charTab__A                                               
00003148  __TI_static_base__                                                        
0000330c  __TI_Handler_Table_Base                                                   
00003318  __TI_Handler_Table_Limit                                                  
00003354  __TI_CINIT_Base                                                           
000033bc  __TI_CINIT_Limit                                                          
0001ffa8  __ccfg                                                                    
10019b00  ti_sysbios_rom_cortexm_cc26xx_r2_CC26xx_REVISION__C                       
10019b05  ti_sysbios_knl_Semaphore_pend__E                                          
10019bf9  ti_sysbios_knl_Event_pend__E                                              
10019ce1  ti_sysbios_knl_Task_Instance_init__E                                      
10019dad  ti_sysbios_knl_Mailbox_Instance_init__E                                   
10019e75  ti_sysbios_family_arm_m3_Hwi_postInit__I                                  
10019f25  ti_sysbios_family_arm_cc26xx_Timer_periodicStub__E                        
10019fc1  ti_sysbios_family_arm_m3_Hwi_Instance_init__E                             
1001a059  ti_sysbios_knl_Task_Instance_finalize__E                                  
1001a0ed  ti_sysbios_knl_Mailbox_post__E                                            
1001a171  ti_sysbios_family_arm_m3_Hwi_initNVIC__E                                  
1001a1f1  ti_sysbios_knl_Clock_startI__E                                            
1001a271  ti_sysbios_knl_Task_postInit__I                                           
1001a2f1  ti_sysbios_knl_Clock_walkQueueDynamic__E                                  
1001a369  ti_sysbios_knl_Clock_workFunc__E                                          
1001a3e1  ti_sysbios_knl_Semaphore_post__E                                          
1001a455  ti_sysbios_knl_Event_post__E                                              
1001a4c5  ti_sysbios_knl_Mailbox_Instance_finalize__E                               
1001a535  ti_sysbios_knl_Mailbox_pend__E                                            
1001a5a5  ti_sysbios_knl_Task_sleep__E                                              
1001a615  ti_sysbios_heaps_HeapMem_allocUnprotected__E                              
1001a683  ti_sysbios_BIOS_linkedWithIncorrectBootLibrary__E                         
1001a685  ti_sysbios_knl_Semaphore_Instance_init__E                                 
1001a6ed  ti_sysbios_knl_Swi_restoreHwi__E                                          
1001a755  ti_sysbios_family_arm_m3_Hwi_Instance_finalize__E                         
1001a7b9  ti_sysbios_family_arm_m3_Hwi_Object__create__S                            
1001a81d  ti_sysbios_family_arm_m3_Hwi_dispatchC__I                                 
1001a881  ti_sysbios_hal_Hwi_create                                                 
1001a8e5  ti_sysbios_family_arm_m3_Hwi_create                                       
1001a945  ti_sysbios_knl_Mailbox_create                                             
1001a9a5  ti_sysbios_knl_Swi_Instance_init__E                                       
1001aa05  ti_sysbios_knl_Task_Module_startup__E                                     
1001aa61  ti_sysbios_knl_Task_startCore__E                                          
1001aabd  ti_sysbios_family_arm_m3_Hwi_construct                                    
1001ab15  ti_sysbios_heaps_HeapMem_alloc__E                                         
1001ab6d  ti_sysbios_heaps_HeapMem_freeUnprotected__E                               
1001abc5  ti_sysbios_knl_Mailbox_construct                                          
1001ac1d  ti_sysbios_knl_Swi_create                                                 
1001ac75  ti_sysbios_knl_Swi_run__I                                                 
1001accd  ti_sysbios_knl_Task_create                                                
1001ad25  ti_sysbios_knl_Swi_schedule__I                                            
1001ad79  ti_sysbios_knl_Swi_construct                                              
1001adc9  ti_sysbios_knl_Swi_runLoop__I                                             
1001ae19  ti_sysbios_knl_Task_construct                                             
1001ae69  ti_sysbios_knl_Task_schedule__I                                           
1001aeb5  ti_sysbios_family_arm_m3_Hwi_Module_startup__E                            
1001aefd  ti_sysbios_heaps_HeapMem_getStats__E                                      
1001af45  ti_sysbios_family_arm_m3_Hwi_disableInterrupt__E                          
1001af45  ti_sysbios_hal_Hwi_HwiProxy_disableInterrupt__E                           
1001af45  ti_sysbios_hal_Hwi_HwiProxy_disableInterrupt__E__mangled__                
1001af45  ti_sysbios_hal_Hwi_disableInterrupt__E                                    
1001af45  ti_sysbios_hal_Hwi_disableInterrupt__E                                    
1001af89  ti_sysbios_family_arm_m3_Hwi_enableInterrupt__E                           
1001af89  ti_sysbios_hal_Hwi_HwiProxy_enableInterrupt__E                            
1001af89  ti_sysbios_hal_Hwi_HwiProxy_enableInterrupt__E__mangled__                 
1001af89  ti_sysbios_hal_Hwi_enableInterrupt__E                                     
1001af89  ti_sysbios_hal_Hwi_enableInterrupt__E                                     
1001afcd  ti_sysbios_knl_Mailbox_Module_startup__E                                  
1001b011  ti_sysbios_knl_Swi_post__E                                                
1001b055  ti_sysbios_knl_Task_allBlockedFunction__I                                 
1001b099  ti_sysbios_family_arm_m3_Hwi_getStackInfo__E                              
1001b099  ti_sysbios_hal_Hwi_HwiProxy_getStackInfo__E                               
1001b099  ti_sysbios_hal_Hwi_HwiProxy_getStackInfo__E__mangled__                    
1001b099  ti_sysbios_hal_Hwi_getStackInfo__E                                        
1001b099  ti_sysbios_hal_Hwi_getStackInfo__E                                        
1001b0d9  ti_sysbios_knl_Task_yield__E                                              
1001b119  ti_sysbios_knl_Task_exit__E                                               
1001b153  ti_sysbios_gates_GateHwi_Instance_init__E                                 
1001b155  ti_sysbios_family_arm_m3_TaskSupport_start__E                             
1001b155  ti_sysbios_knl_Task_SupportProxy_start__E                                 
1001b155  ti_sysbios_knl_Task_SupportProxy_start__E__mangled__                      
1001b18d  ti_sysbios_heaps_HeapMem_Instance_init__E                                 
1001b1c5  ti_sysbios_knl_Clock_Instance_init__E                                     
1001b1fd  ti_sysbios_knl_Clock_create                                               
1001b235  ti_sysbios_heaps_HeapMem_init__I                                          
1001b269  ti_sysbios_knl_Clock_construct                                            
1001b29d  ClockP_getSystemTicks                                                     
1001b29d  ti_sysbios_knl_Clock_getTicks__E                                          
1001b2d1  ti_sysbios_knl_Semaphore_create                                           
1001b305  SwiP_restore                                                              
1001b305  ti_sysbios_knl_Swi_restore__E                                             
1001b339  ti_sysbios_knl_Task_blockI__E                                             
1001b36d  ti_sysbios_gates_GateMutex_Object__create__S                              
1001b39d  ti_sysbios_gates_GateMutex_create                                         
1001b3cd  ti_sysbios_gates_GateMutex_enter__E                                       
1001b3fd  ti_sysbios_heaps_HeapMem_free__E                                          
1001b42d  ti_sysbios_knl_Event_create                                               
1001b45d  ti_sysbios_knl_Semaphore_construct                                        
1001b48d  ti_sysbios_knl_Task_processVitalTaskFlag__I                               
1001b4bd  ti_sysbios_family_arm_cc26xx_Timer_postInit__I                            
1001b4e9  ti_sysbios_family_arm_cc26xx_Timer_startup__E                             
1001b4e9  ti_sysbios_knl_Clock_TimerProxy_startup__E                                
1001b4e9  ti_sysbios_knl_Clock_TimerProxy_startup__E__mangled__                     
1001b515  ti_sysbios_family_arm_m3_Hwi_Object__get__S                               
1001b541  ti_sysbios_gates_GateMutex_construct                                      
1001b56d  ti_sysbios_hal_Hwi_initStack                                              
1001b599  ti_sysbios_heaps_HeapMem_Object__create__S                                
1001b5c5  ti_sysbios_heaps_HeapMem_Object__get__S                                   
1001b5f1  ti_sysbios_knl_Event_construct                                            
1001b61d  ti_sysbios_knl_Event_pendTimeout__I                                       
1001b649  ti_sysbios_knl_Mailbox_Object__get__S                                     
1001b675  ti_sysbios_knl_Mailbox_postInit__I                                        
1001b6a1  ti_sysbios_knl_Queue_construct                                            
1001b6cd  ti_sysbios_knl_Queue_create                                               
1001b6f9  ti_sysbios_knl_Semaphore_pendTimeout__I                                   
1001b725  ti_sysbios_knl_Swi_Object__get__S                                         
1001b751  ti_sysbios_knl_Task_unblockI__E                                           
1001b77d  ti_sysbios_family_arm_cc26xx_TimestampProvider_get64__E                   
1001b77d  xdc_runtime_Timestamp_SupportProxy_get64__E                               
1001b77d  xdc_runtime_Timestamp_SupportProxy_get64__E__mangled__                    
1001b77d  xdc_runtime_Timestamp_get64__E                                            
1001b77d  xdc_runtime_Timestamp_get64__E                                            
1001b7a5  ti_sysbios_knl_Clock_addI__E                                              
1001b7cd  ti_sysbios_knl_Semaphore_Instance_finalize__E                             
1001b7f5  ti_sysbios_knl_Task_restore__E                                            
1001b81d  ti_sysbios_hal_Hwi_Instance_init__E                                       
1001b843  ti_sysbios_knl_Clock_logTick__E                                           
1001b845  ti_sysbios_family_arm_cc26xx_Timer_Module_startup__E                      
1001b869  ti_sysbios_gates_GateHwi_Object__create__S                                
1001b88d  ti_sysbios_BIOS_RtsGateProxy_Object__delete__S                            
1001b88d  ti_sysbios_gates_GateMutex_Object__delete__S                              
1001b88d  ti_sysbios_heaps_HeapMem_Module_GateProxy_Object__delete__S               
1001b8b1  ti_sysbios_knl_Clock_Object__delete__S                                    
1001b8d5  ti_sysbios_knl_Semaphore_Object__delete__S                                
1001b8f9  ti_sysbios_family_arm_cc26xx_Timer_Module__startupDone__S                 
1001b8f9  ti_sysbios_knl_Clock_TimerProxy_Module__startupDone__S                    
1001b8f9  ti_sysbios_knl_Clock_TimerProxy_Module__startupDone__S__mangled__         
1001b919  ti_sysbios_family_arm_cc26xx_TimestampProvider_Module_startup__E          
1001b939  ti_sysbios_family_arm_m3_Hwi_Module__startupDone__S                       
1001b939  ti_sysbios_hal_Hwi_HwiProxy_Module__startupDone__S                        
1001b939  ti_sysbios_hal_Hwi_HwiProxy_Module__startupDone__S__mangled__             
1001b959  ti_sysbios_family_arm_m3_Hwi_Object__delete__S                            
1001b959  ti_sysbios_hal_Hwi_HwiProxy_Object__delete__S                             
1001b979  ti_sysbios_family_arm_m3_Hwi_excHandler__I                                
1001b999  ti_sysbios_gates_GateHwi_Handle__label__S                                 
1001b999  xdc_runtime_Main_Module_GateProxy_Handle__label__S                        
1001b999  xdc_runtime_System_Module_GateProxy_Handle__label__S                      
1001b999  xdc_runtime_System_Module_GateProxy_Handle__label__S__mangled__           
1001b9b9  ti_sysbios_gates_GateHwi_Object__delete__S                                
1001b9b9  xdc_runtime_System_Module_GateProxy_Object__delete__S                     
1001b9d9  ti_sysbios_BIOS_RtsGateProxy_Handle__label__S                             
1001b9d9  ti_sysbios_BIOS_RtsGateProxy_Handle__label__S__mangled__                  
1001b9d9  ti_sysbios_gates_GateMutex_Handle__label__S                               
1001b9d9  ti_sysbios_heaps_HeapMem_Module_GateProxy_Handle__label__S                
1001b9d9  ti_sysbios_heaps_HeapMem_Module_GateProxy_Handle__label__S__mangled__     
1001b9f9  ti_sysbios_gates_GateMutex_Object__destruct__S                            
1001ba19  ti_sysbios_hal_Hwi_Object__delete__S                                      
1001ba39  ti_sysbios_heaps_HeapMem_Handle__label__S                                 
1001ba39  xdc_runtime_Memory_HeapProxy_Handle__label__S                             
1001ba39  xdc_runtime_Memory_HeapProxy_Handle__label__S__mangled__                  
1001ba59  ti_sysbios_heaps_HeapMem_Object__delete__S                                
1001ba59  xdc_runtime_Memory_HeapProxy_Object__delete__S                            
1001ba79  ti_sysbios_knl_Clock_Module_startup__E                                    
1001ba99  ti_sysbios_knl_Clock_Object__destruct__S                                  
1001bab9  ti_sysbios_knl_Clock_stop__E                                              
1001bad9  ti_sysbios_knl_Event_Object__delete__S                                    
1001baf9  ti_sysbios_knl_Event_checkEvents__I                                       
1001bb19  ti_sysbios_knl_Idle_run__E                                                
1001bb39  ti_sysbios_knl_Mailbox_Object__delete__S                                  
1001bb59  ti_sysbios_knl_Queue_Object__delete__S                                    
1001bb79  ti_sysbios_knl_Queue_Object__get__S                                       
1001bb99  ti_sysbios_knl_Semaphore_Object__destruct__S                              
1001bbb9  ti_sysbios_knl_Swi_Object__delete__S                                      
1001bbd9  ti_sysbios_knl_Task_Object__delete__S                                     
1001bbf9  ti_sysbios_knl_Task_Object__get__S                                        
1001bc19  ti_sysbios_knl_Task_restoreHwi__E                                         
1001bc39  ti_sysbios_family_arm_m3_Hwi_Object__destruct__S                          
1001bc55  ti_sysbios_family_arm_m3_Hwi_setPriority__E                               
1001bc71  ti_sysbios_gates_GateMutex_Instance_init__E                               
1001bc8d  ti_sysbios_hal_Hwi_HwiProxy_create                                        
1001bca9  ti_sysbios_knl_Clock_scheduleNextTick__E                                  
1001bcc5  ti_sysbios_knl_Event_Object__destruct__S                                  
1001bce1  ti_sysbios_knl_Mailbox_Object__destruct__S                                
1001bcfd  ti_sysbios_knl_Queue_Object__destruct__S                                  
1001bd19  ti_sysbios_knl_Queue_get__E                                               
1001bd35  ti_sysbios_knl_Queue_put__E                                               
1001bd51  ti_sysbios_knl_Swi_Object__destruct__S                                    
1001bd6d  ti_sysbios_knl_Task_Object__destruct__S                                   
1001bd89  ti_sysbios_knl_Task_enter__I                                              
1001bda5  ti_sysbios_knl_Task_sleepTimeout__I                                       
1001bdbf  ti_sysbios_knl_Clock_triggerFunc__I                                       
1001bdc1  ti_sysbios_family_arm_m3_Hwi_plug__E                                      
1001bdd9  ti_sysbios_gates_GateMutex_leave__E                                       
1001bdf1  ti_sysbios_knl_Task_unblock__E                                            
1001be09  ti_sysbios_knl_Clock_Instance_finalize__E                                 
1001be1f  ti_sysbios_knl_Clock_start__E                                             
1001be35  ti_sysbios_family_arm_m3_Hwi_switchFromBootStack__E                       
1001be35  ti_sysbios_hal_Hwi_HwiProxy_switchFromBootStack__E                        
1001be35  ti_sysbios_hal_Hwi_HwiProxy_switchFromBootStack__E__mangled__             
1001be35  ti_sysbios_hal_Hwi_switchFromBootStack__E                                 
1001be35  ti_sysbios_hal_Hwi_switchFromBootStack__E                                 
1001be49  ti_sysbios_knl_Event_Instance_init__E                                     
1001be5d  ti_sysbios_hal_Hwi_Module_startup__E                                      
1001be6f  ti_sysbios_knl_Event_sync__E                                              
1001be81  ti_sysbios_BIOS_exit__E                                                   
1001be91  ti_sysbios_BIOS_getCpuFreq__E                                             
1001bea1  ti_sysbios_BIOS_setThreadType__E                                          
1001beb1  ti_sysbios_BIOS_start__E                                                  
1001bec1  ti_sysbios_gates_GateMutex_Instance_finalize__E                           
1001bed1  ti_sysbios_hal_Hwi_HwiProxy_Object__create__S                             
1001bee1  ti_sysbios_knl_Clock_TimerProxy_getCurrentTick__E                         
1001bef1  ti_sysbios_knl_Clock_TimerProxy_getMaxTicks__E                            
1001bf01  ti_sysbios_knl_Clock_TimerProxy_setNextTick__E                            
1001bf11  ti_sysbios_knl_Swi_disable__E                                             
1001bf21  ti_sysbios_knl_Swi_enabled__E                                             
1001bf31  ti_sysbios_knl_Task_disable__E                                            
1001bf41  ti_sysbios_heaps_HeapMem_restore__E                                       
1001bf4f  ti_sysbios_knl_Queue_empty__E                                             
1001bf5d  ti_sysbios_knl_Queue_remove__E                                            
1001bf6b  ti_sysbios_family_arm_cc26xx_TimestampProvider_getFreq__E                 
1001bf6b  xdc_runtime_Timestamp_SupportProxy_getFreq__E                             
1001bf6b  xdc_runtime_Timestamp_SupportProxy_getFreq__E__mangled__                  
1001bf6b  xdc_runtime_Timestamp_getFreq__E                                          
1001bf6b  xdc_runtime_Timestamp_getFreq__E                                          
1001bf77  ti_sysbios_knl_Swi_Instance_finalize__E                                   
1001bf79  ti_sysbios_family_arm_m3_Hwi_Params__init__S                              
1001bf79  ti_sysbios_hal_Hwi_HwiProxy_Params__init__S                               
1001bf79  ti_sysbios_hal_Hwi_HwiProxy_Params__init__S__mangled__                    
1001bf85  ti_sysbios_family_arm_m3_Hwi_disableFxn__E                                
1001bf91  ti_sysbios_family_arm_m3_Hwi_enableFxn__E                                 
1001bf9d  ti_sysbios_family_arm_m3_TaskSupport_getStackAlignment__E                 
1001bf9d  ti_sysbios_knl_Task_SupportProxy_getStackAlignment__E                     
1001bf9d  ti_sysbios_knl_Task_SupportProxy_getStackAlignment__E__mangled__          
1001bfa9  ti_sysbios_gates_GateHwi_enter__E                                         
1001bfb5  ti_sysbios_BIOS_RtsGateProxy_Params__init__S                              
1001bfb5  ti_sysbios_BIOS_RtsGateProxy_Params__init__S__mangled__                   
1001bfb5  ti_sysbios_gates_GateMutex_Params__init__S                                
1001bfb5  ti_sysbios_heaps_HeapMem_Module_GateProxy_Params__init__S                 
1001bfb5  ti_sysbios_heaps_HeapMem_Module_GateProxy_Params__init__S__mangled__      
1001bfc1  ti_sysbios_knl_Clock_Params__init__S                                      
1001bfcd  ti_sysbios_knl_Clock_getTimerHandle__E                                    
1001bfd9  ti_sysbios_knl_Event_Params__init__S                                      
1001bfe5  ti_sysbios_knl_Mailbox_Params__init__S                                    
1001bff1  ti_sysbios_knl_Queue_dequeue__E                                           
1001bffd  ti_sysbios_knl_Queue_enqueue__E                                           
1001c009  ti_sysbios_knl_Semaphore_Params__init__S                                  
1001c015  ti_sysbios_knl_Swi_Params__init__S                                        
1001c021  ti_sysbios_knl_Task_Params__init__S                                       
1001c02d  ti_sysbios_knl_Task_self__E                                               
1001c039  ti_sysbios_hal_Hwi_Instance_finalize__E                                   
1001c043  ti_sysbios_family_arm_m3_Hwi_doSwiRestore__I                              
1001c04b  ti_sysbios_family_arm_m3_Hwi_startup__E                                   
1001c04b  ti_sysbios_hal_Hwi_HwiProxy_startup__E                                    
1001c04b  ti_sysbios_hal_Hwi_HwiProxy_startup__E__mangled__                         
1001c04b  ti_sysbios_hal_Hwi_startup__E                                             
1001c04b  ti_sysbios_hal_Hwi_startup__E                                             
1001c053  ti_sysbios_knl_Idle_loop__E                                               
1001c05b  ti_sysbios_family_arm_m3_Hwi_doTaskRestore__I                             
1001c061  HwiP_restore                                                              
1001c061  ti_sysbios_family_arm_m3_Hwi_restoreFxn__E                                
1001c067  ti_sysbios_gates_GateHwi_leave__E                                         
1001c06d  ti_sysbios_heaps_HeapMem_isBlocking__E                                    
1001c073  ti_sysbios_knl_Queue_Instance_init__E                                     
1001c079  ti_sysbios_knl_Queue_elemClear__E                                         
1001c07f  ti_sysbios_knl_Swi_Module_startup__E                                      
1001c085  ti_sysbios_knl_Swi_startup__E                                             
1001c08b  ti_sysbios_knl_Task_enable__E                                             
1001c091  ti_sysbios_BIOS_RtsGateProxy_enter__E                                     
1001c095  ti_sysbios_BIOS_RtsGateProxy_leave__E                                     
1001c099  ti_sysbios_family_arm_cc26xx_Timer_getExpiredTicks__E                     
1001c09d  ti_sysbios_family_arm_cc26xx_Timer_getPeriod__E                           
1001c0a1  ti_sysbios_family_arm_cc26xx_Timer_setPeriod__E                           
1001c0a5  ti_sysbios_family_arm_m3_Hwi_delete                                       
1001c0a9  ti_sysbios_family_arm_m3_Hwi_destruct                                     
1001c0ad  ti_sysbios_family_arm_m3_TaskSupport_Module__startupDone__S               
1001c0ad  ti_sysbios_knl_Task_SupportProxy_Module__startupDone__S                   
1001c0ad  ti_sysbios_knl_Task_SupportProxy_Module__startupDone__S__mangled__        
1001c0b1  ti_sysbios_gates_GateHwi_query__E                                         
1001c0b1  xdc_runtime_Main_Module_GateProxy_query__E                                
1001c0b1  xdc_runtime_System_Module_GateProxy_query__E                              
1001c0b1  xdc_runtime_System_Module_GateProxy_query__E__mangled__                   
1001c0b5  ti_sysbios_gates_GateMutex_delete                                         
1001c0b9  ti_sysbios_gates_GateMutex_destruct                                       
1001c0bd  ti_sysbios_BIOS_RtsGateProxy_query__E                                     
1001c0bd  ti_sysbios_BIOS_RtsGateProxy_query__E__mangled__                          
1001c0bd  ti_sysbios_gates_GateMutex_query__E                                       
1001c0bd  ti_sysbios_heaps_HeapMem_Module_GateProxy_query__E                        
1001c0bd  ti_sysbios_heaps_HeapMem_Module_GateProxy_query__E__mangled__             
1001c0c1  ti_sysbios_hal_Hwi_HwiProxy_delete                                        
1001c0c5  ti_sysbios_hal_Hwi_delete                                                 
1001c0c9  ti_sysbios_heaps_HeapMem_Module_GateProxy_enter__E                        
1001c0cd  ti_sysbios_heaps_HeapMem_Module_GateProxy_leave__E                        
1001c0d1  ti_sysbios_knl_Clock_TimerProxy_getExpiredTicks__E                        
1001c0d5  ti_sysbios_knl_Clock_TimerProxy_getPeriod__E                              
1001c0d9  ti_sysbios_knl_Clock_delete                                               
1001c0dd  ti_sysbios_knl_Clock_destruct                                             
1001c0e1  ti_sysbios_knl_Clock_removeI__E                                           
1001c0e5  ti_sysbios_knl_Clock_setTimeout__E                                        
1001c0e9  ti_sysbios_knl_Event_delete                                               
1001c0ed  ti_sysbios_knl_Event_destruct                                             
1001c0f1  ti_sysbios_knl_Mailbox_delete                                             
1001c0f5  ti_sysbios_knl_Mailbox_destruct                                           
1001c0f9  ti_sysbios_knl_Queue_delete                                               
1001c0fd  ti_sysbios_knl_Queue_destruct                                             
1001c101  ti_sysbios_knl_Queue_head__E                                              
1001c105  ti_sysbios_knl_Queue_next__E                                              
1001c109  ti_sysbios_knl_Semaphore_delete                                           
1001c10d  ti_sysbios_knl_Semaphore_destruct                                         
1001c111  ti_sysbios_knl_Swi_delete                                                 
1001c115  ti_sysbios_knl_Swi_destruct                                               
1001c119  ti_sysbios_knl_Swi_postInit__I                                            
1001c11d  ti_sysbios_knl_Task_delete                                                
1001c121  ti_sysbios_knl_Task_destruct                                              
1001c125  ti_sysbios_knl_Task_startup__E                                            
1001c129  xdc_runtime_Startup_startMods__I                                          
1001c2c9  xdc_runtime_Core_createObject__I                                          
1001c349  xdc_runtime_Memory_alloc__E                                               
1001c3b5  xdc_runtime_Core_deleteObject__I                                          
1001c413  xdc_runtime_Error_policySpin__E                                           
1001c415  xdc_runtime_Startup_exec__E                                               
1001c465  xdc_runtime_Assert_raise__I                                               
1001c4ad  xdc_runtime_Core_assignParams__I                                          
1001c4f5  xdc_runtime_Core_constructObject__I                                       
1001c581  xdc_runtime_System_atexit__E                                              
1001c5b9  xdc_runtime_Core_assignLabel__I                                           
1001c5ed  xdc_runtime_System_processAtExit__E                                       
1001c621  xdc_runtime_Text_cordText__E                                              
1001c64d  xdc_runtime_System_abort__E                                               
1001c66d  xdc_runtime_Error_raiseX__E                                               
1001c689  xdc_runtime_Memory_valloc__E                                              
1001c6a5  xdc_runtime_Core_destructObject__I                                        
1001c6bd  xdc_runtime_Error_check__E                                                
1001c6d5  xdc_runtime_System_exit__E                                                
1001c6ed  xdc_runtime_Text_ropeText__E                                              
1001c705  xdc_runtime_Memory_free__E                                                
1001c715  xdc_runtime_SysCallback_abort__E                                          
1001c725  xdc_runtime_SysCallback_exit__E                                           
1001c735  xdc_runtime_Timestamp_SupportProxy_get32__E                               
1001c735  xdc_runtime_Timestamp_get32__E                                            
1001c735  xdc_runtime_Timestamp_get32__E                                            
1001c751  xdc_runtime_Memory_calloc__E                                              
1001c75d  xdc_runtime_Memory_getMaxDefaultTypeAlign__E                              
1001c769  xdc_runtime_Startup_rtsDone__E                                            
1001c775  xdc_runtime_Memory_HeapProxy_alloc__E                                     
1001c77f  xdc_runtime_Memory_HeapProxy_free__E                                      
1001c789  xdc_runtime_Gate_leaveSystem__E                                           
1001c78f  xdc_runtime_System_Module_startup__E                                      
1001c795  xdc_runtime_Gate_enterSystem__E                                           
1001c799  xdc_runtime_System_Module_GateProxy_enter__E                              
1001c79d  xdc_runtime_System_Module_GateProxy_leave__E                              
1001c7a1  xdc_runtime_System_abortSpin__E                                           
1001c7a3  xdc_runtime_System_exitSpin__E                                            
1001c7a5  ti_sysbios_family_arm_m3_Hwi_dispatch__I                                  
1001c86d  ti_sysbios_family_arm_m3_TaskSupport_buildTaskStack                       
1001c8b9  ti_sysbios_family_arm_m3_Hwi_initStacks__E                                
1001c901  ti_sysbios_family_arm_m3_Hwi_excHandlerAsm__I                             
1001c921  ti_sysbios_family_xxx_Hwi_switchAndRunFunc                                
1001c93f  ti_sysbios_family_arm_m3_Hwi_pendSV__I                                    
1001c957  ti_sysbios_family_arm_m3_Hwi_return                                       
1001c959  ti_sysbios_family_arm_m3_TaskSupport_glue                                 
1001c969  ti_sysbios_family_arm_m3_TaskSupport_swap__E                              
1001c969  ti_sysbios_knl_Task_SupportProxy_swap__E                                  
1001c969  ti_sysbios_knl_Task_SupportProxy_swap__E__mangled__                       
1001c971  ti_sysbios_knl_Task_swapReturn                                            
1001c978  ti_sysbios_knl_Task_Object__PARAMS__C                                     
1001c9b4  ti_sysbios_knl_Mailbox_Object__PARAMS__C                                  
1001c9e8  ti_sysbios_family_arm_m3_Hwi_Object__PARAMS__C                            
1001ca18  ti_sysbios_hal_Hwi_Object__PARAMS__C                                      
1001ca44  ti_sysbios_knl_Swi_Object__PARAMS__C                                      
1001ca6c  ti_sysbios_heaps_HeapMem_Object__PARAMS__C                                
1001ca90  ti_sysbios_knl_Clock_Object__PARAMS__C                                    
1001cab4  ti_sysbios_knl_Semaphore_Object__PARAMS__C                                
1001cad8  ti_sysbios_gates_GateHwi_Object__PARAMS__C                                
1001caf0  ti_sysbios_gates_GateMutex_Object__PARAMS__C                              
1001cb08  ti_sysbios_knl_Event_Object__PARAMS__C                                    
1001cb20  ti_sysbios_knl_Queue_Object__PARAMS__C                                    
1001cb68  ti_sysbios_gates_GateMutex_Instance_State_sem__O                          
1001cb6c  ti_sysbios_knl_Clock_Module_State_clockQ__O                               
1001cb70  ti_sysbios_knl_Event_Instance_State_pendQ__O                              
1001cb74  ti_sysbios_knl_Mailbox_Instance_State_dataQue__O                          
1001cb78  ti_sysbios_knl_Mailbox_Instance_State_dataSem__O                          
1001cb7c  ti_sysbios_knl_Mailbox_Instance_State_freeQue__O                          
1001cb80  ti_sysbios_knl_Mailbox_Instance_State_freeSem__O                          
1001cb84  ti_sysbios_knl_Semaphore_Instance_State_pendQ__O                          
1001cb88  ti_sysbios_knl_Task_Module_State_inactiveQ__O                             
20000000  ti_sysbios_family_arm_m3_Hwi_ramVectors                                   
20000100  ti_sysbios_knl_Task_Module__state__V                                      
20000144  ti_sysbios_family_arm_m3_Hwi_Module__state__V                             
20000178  ti_sysbios_knl_Clock_Module__state__V                                     
200001a4  ti_sysbios_BIOS_Module__state__V                                          
200001c8  ti_sysbios_knl_Swi_Module__state__V                                       
200001e4  ti_sysbios_family_arm_cc26xx_Timer_Module__state__V                       
200001ec  ti_sysbios_family_arm_cc26xx_TimestampProvider_Module__state__V           
200001f0  xdc_runtime_Startup_Module__state__V                                      
200001f8  xdc_runtime_System_Module__state__V                                       
20000200  xdc_runtime_Memory_Module__state__V                                       
20000204  xdc_runtime_Error_Module__state__V                                        
20000208  __primary_heap_start__                                                    
20001208  __primary_heap_end__                                                      
20001608  ti_sysbios_knl_Task_Instance_State_0_stack__A                             
20001808  xdc_runtime_SysMin_Module_State_0_outbuf__A                               
20001a08  __CIOBUF_                                                                 
20001b28  ti_sysbios_family_arm_m3_Hwi_dispatchTable                                
20001bf0  adc_task_struct                                                           
20001c54  PowerCC26XX_taskKey                                                       
20001c58  PowerCC26XX_swiKey                                                        
20001c64  parmbuf                                                                   
20001c6c  ClockP_tickPeriod                                                         
20001c70  driverlib_release_0_53646                                                 
20001c78  pinUpperBound                                                             
20001c7c  pinLowerBound                                                             
20001d10  pinHandleTable                                                            
20001d8c  PowerCC26XX_module                                                        
20001ef4  ti_sysbios_knl_Task_Object__table__V                                      
20001f40  ti_sysbios_family_arm_cc26xx_Timer_Object__table__V                       
20001f88  ti_sysbios_gates_GateMutex_Object__table__V                               
20001fc0  gpioPinConfigs                                                            
20001ff0  ti_sysbios_knl_Swi_Module_State_0_readyQ__A                               
20002020  ti_sysbios_knl_Swi_Object__table__V                                       
20002050  ti_sysbios_knl_Clock_Object__table__V                                     
20002070  ti_sysbios_knl_Task_Module_State_0_readyQ__A                              
20002090  xdc_runtime_Error_IgnoreBlock                                             
200020b0  ti_sysbios_family_arm_m3_Hwi_Object__table__V                             
200020c8  ti_sysbios_heaps_HeapMem_Object__table__V                                 
200020e0  gpioCallbackFunctions                                                     
200020f0  xdc_runtime_SysMin_Module__state__V                                       
200020fc  _lock                                                                     
20002100  _unlock                                                                   
20002104  ti_sysbios_family_arm_m3_Hwi_Module__root__V                              
2000210c  ti_sysbios_gates_GateHwi_Module__root__V                                  
20002114  ti_sysbios_gates_GateMutex_Module__root__V                                
2000211c  ti_sysbios_hal_Hwi_Module__root__V                                        
20002124  ti_sysbios_heaps_HeapMem_Module__root__V                                  
2000212c  ti_sysbios_knl_Clock_Module__root__V                                      
20002134  ti_sysbios_knl_Event_Module__root__V                                      
2000213c  ti_sysbios_knl_Mailbox_Module__root__V                                    
20002144  ti_sysbios_knl_Queue_Module__root__V                                      
2000214c  ti_sysbios_knl_Semaphore_Module__root__V                                  
20002154  ti_sysbios_knl_Swi_Module__root__V                                        
2000215c  ti_sysbios_knl_Task_Module__root__V                                       
20002164  xdc_runtime_System_Module_State_0_atexitHandlers__A                       
2000216c  main_func_sp                                                              
20002170  ti_sysbios_family_arm_m3_Hwi_Module_State_0_excContext__A                 
20002174  ti_sysbios_family_arm_m3_Hwi_Module_State_0_excStack__A                   
20002178  ti_sysbios_knl_Task_Module_State_0_idleTask__A                            
2000217c  ti_sysbios_family_arm_m3_Hwi_Module_State_0_excActive__A                  
20004c00  __stack                                                                   
20005000  __STACK_END                                                               
e000e000  ti_sysbios_family_arm_m3_Hwi_nvic                                         
ffffffff  __TI_pprof_out_hndl                                                       
ffffffff  __TI_prof_data_size                                                       
ffffffff  __TI_prof_data_start                                                      
ffffffff  __binit__                                                                 
ffffffff  __c_args__                                                                
ffffffff  binit                                                                     
UNDEFED   SHT$$INIT_ARRAY$$Base                                                     
UNDEFED   SHT$$INIT_ARRAY$$Limit                                                    

[737 symbols]
